

Microchip MPLAB XC8 Assembler V2.40 build 20220703182018 
                                                                                               Thu Jun 22 15:02:32 2023

Microchip MPLAB XC8 C Compiler v2.40 (Free license) build 20220703182018 Og1 
     1                           	processor	10F322
     2                           	pagewidth 120
     3                           	opt	flic
     4                           	psect	cinit,global,class=CODE,merge=1,delta=2
     5                           	psect	bssBANK0,global,class=BANK0,space=1,delta=1,noexec
     6                           	psect	cstackCOMMON,global,class=COMMON,space=1,delta=1,noexec
     7                           	psect	cstackBANK0,global,class=BANK0,space=1,delta=1,noexec
     8                           	psect	maintext,global,class=CODE,split=1,delta=2
     9                           	psect	text1,local,class=CODE,merge=1,delta=2
    10                           	psect	text2,local,class=CODE,merge=1,delta=2
    11                           	psect	text3,local,class=CODE,merge=1,delta=2
    12                           	psect	text4,local,class=CODE,merge=1,delta=2
    13                           	psect	text5,local,class=CODE,merge=1,delta=2
    14                           	psect	text6,local,class=CODE,merge=1,delta=2
    15                           	psect	intentry,global,class=CODE,delta=2
    16                           	psect	text7,local,class=CODE,merge=1,delta=2
    17                           	psect	text8,local,class=CODE,merge=1,delta=2
    18                           	psect	text9,local,class=CODE,merge=1,delta=2
    19                           	psect	text10,local,class=CODE,merge=1,delta=2
    20                           	psect	text11,local,class=CODE,merge=1,delta=2
    21                           	psect	text12,local,class=CODE,merge=1,delta=2
    22                           	psect	text13,local,class=CODE,merge=1,delta=2,group=1
    23                           	psect	text14,local,class=CODE,merge=1,delta=2,group=1
    24                           	psect	text15,local,class=CODE,merge=1,delta=2
    25                           	psect	text16,local,class=CODE,merge=1,delta=2
    26                           	psect	text17,local,class=CODE,merge=1,delta=2
    27                           	psect	text18,local,class=CODE,merge=1,delta=2
    28                           	psect	text19,local,class=CODE,merge=1,delta=2
    29                           	psect	text20,local,class=CODE,merge=1,delta=2
    30                           	psect	text21,local,class=CODE,merge=1,delta=2
    31                           	psect	text22,local,class=CODE,merge=1,delta=2
    32                           	psect	config,global,abs,ovrld,class=CONFIG,space=4,delta=2,noexec
    33                           	dabs	1,0x7E,2
    34     0000                     
    35                           ; Version 2.32
    36                           ; Generated 23/11/2020 GMT
    37                           ; 
    38                           ; Copyright © 2020, Microchip Technology Inc. and its subsidiaries ("Microchip")
    39                           ; All rights reserved.
    40                           ; 
    41                           ; This software is developed by Microchip Technology Inc. and its subsidiaries ("Microch
      +                          ip").
    42                           ; 
    43                           ; Redistribution and use in source and binary forms, with or without modification, are
    44                           ; permitted provided that the following conditions are met:
    45                           ; 
    46                           ;     1. Redistributions of source code must retain the above copyright notice, this lis
      +                          t of
    47                           ;        conditions and the following disclaimer.
    48                           ; 
    49                           ;     2. Redistributions in binary form must reproduce the above copyright notice, this 
      +                          list
    50                           ;        of conditions and the following disclaimer in the documentation and/or other
    51                           ;        materials provided with the distribution. Publication is not required when
    52                           ;        this file is used in an embedded application.
    53                           ; 
    54                           ;     3. Microchip's name may not be used to endorse or promote products derived from th
      +                          is
    55                           ;        software without specific prior written permission.
    56                           ; 
    57                           ; THIS SOFTWARE IS PROVIDED BY MICROCHIP "AS IS" AND ANY EXPRESS OR IMPLIED WARRANTIES,
    58                           ; INCLUDING, BUT NOT LIMITED TO, THE IMPLIED WARRANTIES OF MERCHANTABILITY AND FITNESS F
      +                          OR
    59                           ; PURPOSE ARE DISCLAIMED.  IN NO EVENT SHALL MICROCHIP BE LIABLE FOR ANY DIRECT, INDIREC
      +                          T,
    60                           ; INCIDENTAL, SPECIAL, EXEMPLARY, OR CONSEQUENTIAL DAMAGES (INCLUDING BUT NOT LIMITED TO
    61                           ; PROCUREMENT OF SUBSTITUTE GOODS OR SERVICES; LOSS OF USE, DATA OR PROFITS; OR BUSINESS
    62                           ; INTERRUPTION) HOWSOEVER CAUSED AND ON ANY THEORY OF LIABILITY, WHETHER IN CONTRACT, ST
      +                          RICT
    63                           ; LIABILITY, OR TORT (INCLUDING NEGLIGENCE OR OTHERWISE) ARISING IN ANY WAY OUT OF THE U
      +                          SE OF
    64                           ; THIS SOFTWARE, EVEN IF ADVISED OF THE POSSIBILITY OF SUCH DAMAGE.
    65                           ; 
    66                           ; 
    67                           ; Code-generator required, PIC10F322 Definitions
    68                           ; 
    69                           ; SFR Addresses
    70     0000                     	;# 
    71     0001                     	;# 
    72     0002                     	;# 
    73     0003                     	;# 
    74     0004                     	;# 
    75     0005                     	;# 
    76     0006                     	;# 
    77     0007                     	;# 
    78     0008                     	;# 
    79     0009                     	;# 
    80     000A                     	;# 
    81     000B                     	;# 
    82     000C                     	;# 
    83     000D                     	;# 
    84     000E                     	;# 
    85     000F                     	;# 
    86     0010                     	;# 
    87     0011                     	;# 
    88     0012                     	;# 
    89     0013                     	;# 
    90     0014                     	;# 
    91     0015                     	;# 
    92     0016                     	;# 
    93     0016                     	;# 
    94     0017                     	;# 
    95     0018                     	;# 
    96     0019                     	;# 
    97     0019                     	;# 
    98     001A                     	;# 
    99     001B                     	;# 
   100     001C                     	;# 
   101     001D                     	;# 
   102     001E                     	;# 
   103     001F                     	;# 
   104     0020                     	;# 
   105     0020                     	;# 
   106     0021                     	;# 
   107     0022                     	;# 
   108     0022                     	;# 
   109     0023                     	;# 
   110     0024                     	;# 
   111     0025                     	;# 
   112     0026                     	;# 
   113     0027                     	;# 
   114     0027                     	;# 
   115     0028                     	;# 
   116     0029                     	;# 
   117     002A                     	;# 
   118     002A                     	;# 
   119     002B                     	;# 
   120     002C                     	;# 
   121     002D                     	;# 
   122     002E                     	;# 
   123     0030                     	;# 
   124     0031                     	;# 
   125     0032                     	;# 
   126     0033                     	;# 
   127     0034                     	;# 
   128     0035                     	;# 
   129     0036                     	;# 
   130     0037                     	;# 
   131     0038                     	;# 
   132     0039                     	;# 
   133     003A                     	;# 
   134     003B                     	;# 
   135     003C                     	;# 
   136     003D                     	;# 
   137     003E                     	;# 
   138     003F                     	;# 
   139     0000                     	;# 
   140     0001                     	;# 
   141     0002                     	;# 
   142     0003                     	;# 
   143     0004                     	;# 
   144     0005                     	;# 
   145     0006                     	;# 
   146     0007                     	;# 
   147     0008                     	;# 
   148     0009                     	;# 
   149     000A                     	;# 
   150     000B                     	;# 
   151     000C                     	;# 
   152     000D                     	;# 
   153     000E                     	;# 
   154     000F                     	;# 
   155     0010                     	;# 
   156     0011                     	;# 
   157     0012                     	;# 
   158     0013                     	;# 
   159     0014                     	;# 
   160     0015                     	;# 
   161     0016                     	;# 
   162     0016                     	;# 
   163     0017                     	;# 
   164     0018                     	;# 
   165     0019                     	;# 
   166     0019                     	;# 
   167     001A                     	;# 
   168     001B                     	;# 
   169     001C                     	;# 
   170     001D                     	;# 
   171     001E                     	;# 
   172     001F                     	;# 
   173     0020                     	;# 
   174     0020                     	;# 
   175     0021                     	;# 
   176     0022                     	;# 
   177     0022                     	;# 
   178     0023                     	;# 
   179     0024                     	;# 
   180     0025                     	;# 
   181     0026                     	;# 
   182     0027                     	;# 
   183     0027                     	;# 
   184     0028                     	;# 
   185     0029                     	;# 
   186     002A                     	;# 
   187     002A                     	;# 
   188     002B                     	;# 
   189     002C                     	;# 
   190     002D                     	;# 
   191     002E                     	;# 
   192     0030                     	;# 
   193     0031                     	;# 
   194     0032                     	;# 
   195     0033                     	;# 
   196     0034                     	;# 
   197     0035                     	;# 
   198     0036                     	;# 
   199     0037                     	;# 
   200     0038                     	;# 
   201     0039                     	;# 
   202     003A                     	;# 
   203     003B                     	;# 
   204     003C                     	;# 
   205     003D                     	;# 
   206     003E                     	;# 
   207     003F                     	;# 
   208     0000                     	;# 
   209     0001                     	;# 
   210     0002                     	;# 
   211     0003                     	;# 
   212     0004                     	;# 
   213     0005                     	;# 
   214     0006                     	;# 
   215     0007                     	;# 
   216     0008                     	;# 
   217     0009                     	;# 
   218     000A                     	;# 
   219     000B                     	;# 
   220     000C                     	;# 
   221     000D                     	;# 
   222     000E                     	;# 
   223     000F                     	;# 
   224     0010                     	;# 
   225     0011                     	;# 
   226     0012                     	;# 
   227     0013                     	;# 
   228     0014                     	;# 
   229     0015                     	;# 
   230     0016                     	;# 
   231     0016                     	;# 
   232     0017                     	;# 
   233     0018                     	;# 
   234     0019                     	;# 
   235     0019                     	;# 
   236     001A                     	;# 
   237     001B                     	;# 
   238     001C                     	;# 
   239     001D                     	;# 
   240     001E                     	;# 
   241     001F                     	;# 
   242     0020                     	;# 
   243     0020                     	;# 
   244     0021                     	;# 
   245     0022                     	;# 
   246     0022                     	;# 
   247     0023                     	;# 
   248     0024                     	;# 
   249     0025                     	;# 
   250     0026                     	;# 
   251     0027                     	;# 
   252     0027                     	;# 
   253     0028                     	;# 
   254     0029                     	;# 
   255     002A                     	;# 
   256     002A                     	;# 
   257     002B                     	;# 
   258     002C                     	;# 
   259     002D                     	;# 
   260     002E                     	;# 
   261     0030                     	;# 
   262     0031                     	;# 
   263     0032                     	;# 
   264     0033                     	;# 
   265     0034                     	;# 
   266     0035                     	;# 
   267     0036                     	;# 
   268     0037                     	;# 
   269     0038                     	;# 
   270     0039                     	;# 
   271     003A                     	;# 
   272     003B                     	;# 
   273     003C                     	;# 
   274     003D                     	;# 
   275     003E                     	;# 
   276     003F                     	;# 
   277     0000                     	;# 
   278     0001                     	;# 
   279     0002                     	;# 
   280     0003                     	;# 
   281     0004                     	;# 
   282     0005                     	;# 
   283     0006                     	;# 
   284     0007                     	;# 
   285     0008                     	;# 
   286     0009                     	;# 
   287     000A                     	;# 
   288     000B                     	;# 
   289     000C                     	;# 
   290     000D                     	;# 
   291     000E                     	;# 
   292     000F                     	;# 
   293     0010                     	;# 
   294     0011                     	;# 
   295     0012                     	;# 
   296     0013                     	;# 
   297     0014                     	;# 
   298     0015                     	;# 
   299     0016                     	;# 
   300     0016                     	;# 
   301     0017                     	;# 
   302     0018                     	;# 
   303     0019                     	;# 
   304     0019                     	;# 
   305     001A                     	;# 
   306     001B                     	;# 
   307     001C                     	;# 
   308     001D                     	;# 
   309     001E                     	;# 
   310     001F                     	;# 
   311     0020                     	;# 
   312     0020                     	;# 
   313     0021                     	;# 
   314     0022                     	;# 
   315     0022                     	;# 
   316     0023                     	;# 
   317     0024                     	;# 
   318     0025                     	;# 
   319     0026                     	;# 
   320     0027                     	;# 
   321     0027                     	;# 
   322     0028                     	;# 
   323     0029                     	;# 
   324     002A                     	;# 
   325     002A                     	;# 
   326     002B                     	;# 
   327     002C                     	;# 
   328     002D                     	;# 
   329     002E                     	;# 
   330     0030                     	;# 
   331     0031                     	;# 
   332     0032                     	;# 
   333     0033                     	;# 
   334     0034                     	;# 
   335     0035                     	;# 
   336     0036                     	;# 
   337     0037                     	;# 
   338     0038                     	;# 
   339     0039                     	;# 
   340     003A                     	;# 
   341     003B                     	;# 
   342     003C                     	;# 
   343     003D                     	;# 
   344     003E                     	;# 
   345     003F                     	;# 
   346     0005                     _PORTA	set	5
   347     000E                     _OPTION_REG	set	14
   348     000B                     _INTCON	set	11
   349     003E                     _VREGCON	set	62
   350     001D                     _FVRCON	set	29
   351     001F                     _ADCON	set	31
   352     0009                     _WPUA	set	9
   353     0013                     _T2CON	set	19
   354     000C                     _PIR1	set	12
   355     0011                     _TMR2	set	17
   356     0012                     _PR2	set	18
   357     0019                     _PWM2CON	set	25
   358     0008                     _ANSELA	set	8
   359     0006                     _TRISA	set	6
   360     0007                     _LATA	set	7
   361     0017                     _PWM2DCL	set	23
   362     0018                     _PWM2DCH	set	24
   363                           
   364                           	psect	cinit
   365     000B                     start_initialization:	
   366                           ; #config settings
   367                           
   368     000B                     __initialization:
   369                           
   370                           ; Clear objects allocated to BANK0
   371     000B  01DB               	clrf	__pbssBANK0& (0+127)
   372     000C  01DC               	clrf	(__pbssBANK0+1)& (0+127)
   373     000D  01DD               	clrf	(__pbssBANK0+2)& (0+127)
   374     000E                     end_of_initialization:	
   375                           ;End of C runtime variable initialization code
   376                           
   377     000E                     __end_of__initialization:
   378     000E  0183               	clrf	3
   379     000F  29B8               	ljmp	_main	;jump to C main() function
   380                           
   381                           	psect	bssBANK0
   382     005B                     __pbssBANK0:
   383     005B                     _sleep_mode:
   384     005B                     	ds	1
   385     005C                     _Button_State:
   386     005C                     	ds	1
   387     005D                     _executed:
   388     005D                     	ds	1
   389                           
   390                           	psect	cstackCOMMON
   391     0000                     __pcstackCOMMON:
   392     0000                     ??_Sleep_Init:
   393     0000                     ??_PWM_Clear_Execution_Status:	
   394                           ; 1 bytes @ 0x0
   395                           
   396     0000                     ??_Button_Get_Sleep_Mode:	
   397                           ; 1 bytes @ 0x0
   398                           
   399     0000                     ??_main:	
   400                           ; 1 bytes @ 0x0
   401                           
   402     0000                     ??_PWM_Get_Execution_Status:	
   403                           ; 1 bytes @ 0x0
   404                           
   405     0000                     ??_PWM_Set_Execution_Status:	
   406                           ; 1 bytes @ 0x0
   407                           
   408     0000                     ??_PWM_On_20_Percent_Duty_Cycle:	
   409                           ; 1 bytes @ 0x0
   410                           
   411     0000                     ??_PWM_On_50_Percent_Duty_Cycle:	
   412                           ; 1 bytes @ 0x0
   413                           
   414     0000                     ??_PWM_On_100_Percent_Duty_Cycle:	
   415                           ; 1 bytes @ 0x0
   416                           
   417     0000                     ??_PWM_Off:	
   418                           ; 1 bytes @ 0x0
   419                           
   420     0000                     ??_Button_Set_Sleep_Mode:	
   421                           ; 1 bytes @ 0x0
   422                           
   423     0000                     ??_Button_Set_Active_Mode:	
   424                           ; 1 bytes @ 0x0
   425                           
   426     0000                     ??_Button_Get_State:	
   427                           ; 1 bytes @ 0x0
   428                           
   429     0000                     ??i1_PWM_Clear_Execution_Status:	
   430                           ; 1 bytes @ 0x0
   431                           
   432                           
   433                           	psect	cstackBANK0
   434     0040                     __pcstackBANK0:	
   435                           ; 1 bytes @ 0x0
   436                           
   437     0040                     ?_Button_Init:
   438     0040                     ?_Sleep_Init:	
   439                           ; 1 bytes @ 0x0
   440                           
   441     0040                     ?_PWM_Clear_Execution_Status:	
   442                           ; 1 bytes @ 0x0
   443                           
   444     0040                     ?_Button_Get_Sleep_Mode:	
   445                           ; 1 bytes @ 0x0
   446                           
   447     0040                     ?_Button_ISR_Executables:	
   448                           ; 1 bytes @ 0x0
   449                           
   450     0040                     ?_main:	
   451                           ; 1 bytes @ 0x0
   452                           
   453     0040                     ?_ISRs:	
   454                           ; 1 bytes @ 0x0
   455                           
   456     0040                     ?_PWM_Get_Execution_Status:	
   457                           ; 1 bytes @ 0x0
   458                           
   459     0040                     ?_PWM_Set_Execution_Status:	
   460                           ; 1 bytes @ 0x0
   461                           
   462     0040                     ?_PWM_Enable:	
   463                           ; 1 bytes @ 0x0
   464                           
   465     0040                     ??_PWM_Enable:	
   466                           ; 1 bytes @ 0x0
   467                           
   468     0040                     ?_PWM_Disable:	
   469                           ; 1 bytes @ 0x0
   470                           
   471     0040                     ??_PWM_Disable:	
   472                           ; 1 bytes @ 0x0
   473                           
   474     0040                     ?_PWM_On_20_Percent_Duty_Cycle:	
   475                           ; 1 bytes @ 0x0
   476                           
   477     0040                     ?_PWM_On_50_Percent_Duty_Cycle:	
   478                           ; 1 bytes @ 0x0
   479                           
   480     0040                     ?_PWM_On_100_Percent_Duty_Cycle:	
   481                           ; 1 bytes @ 0x0
   482                           
   483     0040                     ?_PWM_Off:	
   484                           ; 1 bytes @ 0x0
   485                           
   486     0040                     ?_Sleep_Unused_GPIO_Config:	
   487                           ; 1 bytes @ 0x0
   488                           
   489     0040                     ?_Button_Set_Sleep_Mode:	
   490                           ; 1 bytes @ 0x0
   491                           
   492     0040                     ?_Button_Set_Active_Mode:	
   493                           ; 1 bytes @ 0x0
   494                           
   495     0040                     ?_Button_Get_State:	
   496                           ; 1 bytes @ 0x0
   497                           
   498     0040                     ?i1_PWM_Clear_Execution_Status:	
   499                           ; 1 bytes @ 0x0
   500                           
   501     0040                     ?___lmul:	
   502                           ; 1 bytes @ 0x0
   503                           
   504     0040                     ?___lldiv:	
   505                           ; 4 bytes @ 0x0
   506                           
   507     0040                     ___lmul@multiplier:	
   508                           ; 4 bytes @ 0x0
   509                           
   510     0040                     ___lldiv@divisor:	
   511                           ; 4 bytes @ 0x0
   512                           
   513                           
   514                           ; 4 bytes @ 0x0
   515     0040                     	ds	4
   516     0044                     ___lmul@multiplicand:
   517     0044                     ___lldiv@dividend:	
   518                           ; 4 bytes @ 0x4
   519                           
   520                           
   521                           ; 4 bytes @ 0x4
   522     0044                     	ds	4
   523     0048                     ??___lmul:
   524     0048                     ??___lldiv:	
   525                           ; 1 bytes @ 0x8
   526                           
   527                           
   528                           ; 1 bytes @ 0x8
   529     0048                     	ds	1
   530     0049                     ___lmul@product:
   531     0049                     ___lldiv@quotient:	
   532                           ; 4 bytes @ 0x9
   533                           
   534                           
   535                           ; 4 bytes @ 0x9
   536     0049                     	ds	4
   537     004D                     ___lldiv@counter:
   538                           
   539                           ; 1 bytes @ 0xD
   540     004D                     	ds	1
   541     004E                     ?_PWM_Set_Duty:
   542     004E                     PWM_Set_Duty@duty:	
   543                           ; 1 bytes @ 0xE
   544                           
   545                           
   546                           ; 4 bytes @ 0xE
   547     004E                     	ds	4
   548     0052                     ??_PWM_Set_Duty:
   549                           
   550                           ; 1 bytes @ 0x12
   551     0052                     	ds	2
   552     0054                     PWM_Set_Duty@temp:
   553                           
   554                           ; 2 bytes @ 0x14
   555     0054                     	ds	2
   556     0056                     ??_Button_ISR_Executables:
   557                           
   558                           ; 1 bytes @ 0x16
   559     0056                     	ds	2
   560     0058                     ??_ISRs:
   561                           
   562                           ; 1 bytes @ 0x18
   563     0058                     	ds	2
   564     005A                     ??_Button_Init:
   565     005A                     ??_Sleep_Unused_GPIO_Config:	
   566                           ; 1 bytes @ 0x1A
   567                           
   568                           
   569                           ; 1 bytes @ 0x1A
   570     005A                     	ds	1
   571                           
   572                           	psect	maintext
   573     01B8                     __pmaintext:	
   574 ;;
   575 ;;Main: autosize = 0, tempsize = 0, incstack = 0, save=0
   576 ;;
   577 ;; *************** function _main *****************
   578 ;; Defined at:
   579 ;;		line 16 in file "main.c"
   580 ;; Parameters:    Size  Location     Type
   581 ;;		None
   582 ;; Auto vars:     Size  Location     Type
   583 ;;		None
   584 ;; Return value:  Size  Location     Type
   585 ;;                  1    wreg      void 
   586 ;; Registers used:
   587 ;;		wreg, status,2, status,0, pclath, cstack
   588 ;; Tracked objects:
   589 ;;		On entry : B00/0
   590 ;;		On exit  : 0/0
   591 ;;		Unchanged: 0/0
   592 ;; Data sizes:     COMMON   BANK0
   593 ;;      Params:         0       0
   594 ;;      Locals:         0       0
   595 ;;      Temps:          0       0
   596 ;;      Totals:         0       0
   597 ;;Total ram usage:        0 bytes
   598 ;; Hardware stack levels required when called: 7
   599 ;; This function calls:
   600 ;;		_Button_Get_Sleep_Mode
   601 ;;		_Button_Init
   602 ;;		_PWM_Clear_Execution_Status
   603 ;;		_Sleep_Init
   604 ;; This function is called by:
   605 ;;		Startup code after reset
   606 ;; This function uses a non-reentrant model
   607 ;;
   608                           
   609     01B8                     _main:	
   610                           ;psect for function _main
   611                           
   612     01B8                     l1012:	
   613                           ;incstack = 0
   614                           ; Regs used in _main: [wreg+status,2+status,0+pclath+cstack]
   615                           
   616                           
   617                           ;main.c: 18: Button_Init();
   618     01B8  21C4               	fcall	_Button_Init
   619                           
   620                           ;main.c: 19: Sleep_Init();
   621     01B9  21D8               	fcall	_Sleep_Init
   622     01BA                     l1014:
   623                           
   624                           ;main.c: 20: PWM_Clear_Execution_Status();
   625     01BA  21F3               	fcall	_PWM_Clear_Execution_Status
   626     01BB                     l1016:
   627                           
   628                           ;main.c: 24: if(Button_Get_Sleep_Mode()==1){
   629     01BB  21F5               	fcall	_Button_Get_Sleep_Mode
   630     01BC  3A01               	xorlw	1
   631     01BD  1D03               	skipz
   632     01BE  29C0               	goto	u501
   633     01BF  29C1               	goto	u500
   634     01C0                     u501:
   635     01C0  29BB               	goto	l1016
   636     01C1                     u500:
   637     01C1                     l1018:
   638     01C1  0063               	sleep	;# 
   639     01C2  29BB               	goto	l1016
   640     01C3  280A               	ljmp	start
   641     01C4                     __end_of_main:
   642                           
   643                           	psect	text1
   644     01D8                     __ptext1:	
   645 ;; *************** function _Sleep_Init *****************
   646 ;; Defined at:
   647 ;;		line 78 in file "sleep.c"
   648 ;; Parameters:    Size  Location     Type
   649 ;;		None
   650 ;; Auto vars:     Size  Location     Type
   651 ;;		None
   652 ;; Return value:  Size  Location     Type
   653 ;;                  1    wreg      void 
   654 ;; Registers used:
   655 ;;		wreg, status,2, status,0, pclath, cstack
   656 ;; Tracked objects:
   657 ;;		On entry : 0/0
   658 ;;		On exit  : 0/0
   659 ;;		Unchanged: 0/0
   660 ;; Data sizes:     COMMON   BANK0
   661 ;;      Params:         0       0
   662 ;;      Locals:         0       0
   663 ;;      Temps:          0       0
   664 ;;      Totals:         0       0
   665 ;;Total ram usage:        0 bytes
   666 ;; Hardware stack levels used: 1
   667 ;; Hardware stack levels required when called: 6
   668 ;; This function calls:
   669 ;;		_Sleep_Unused_GPIO_Config
   670 ;; This function is called by:
   671 ;;		_main
   672 ;; This function uses a non-reentrant model
   673 ;;
   674                           
   675     01D8                     _Sleep_Init:	
   676                           ;psect for function _Sleep_Init
   677                           
   678     01D8                     l966:	
   679                           ;incstack = 0
   680                           ; Regs used in _Sleep_Init: [wreg+status,2+status,0+pclath+cstack]
   681                           
   682                           
   683                           ;sleep.c: 79: WPUA = (1<<3);
   684     01D8  3008               	movlw	8
   685     01D9  0089               	movwf	9	;volatile
   686     01DA                     l968:
   687                           
   688                           ;sleep.c: 83: ADCON = 0x00;
   689     01DA  019F               	clrf	31	;volatile
   690     01DB                     l970:
   691                           
   692                           ;sleep.c: 84: FVRCON = 0x00;
   693     01DB  019D               	clrf	29	;volatile
   694                           
   695                           ;sleep.c: 85: VREGCON = 0x02;
   696     01DC  3002               	movlw	2
   697     01DD  00BE               	movwf	62	;volatile
   698     01DE                     l972:
   699                           
   700                           ;sleep.c: 86: Sleep_Unused_GPIO_Config();
   701     01DE  21E8               	fcall	_Sleep_Unused_GPIO_Config
   702     01DF                     l96:
   703     01DF  0008               	return
   704     01E0                     __end_of_Sleep_Init:
   705                           
   706                           	psect	text2
   707     01E8                     __ptext2:	
   708 ;; *************** function _Sleep_Unused_GPIO_Config *****************
   709 ;; Defined at:
   710 ;;		line 72 in file "sleep.c"
   711 ;; Parameters:    Size  Location     Type
   712 ;;		None
   713 ;; Auto vars:     Size  Location     Type
   714 ;;		None
   715 ;; Return value:  Size  Location     Type
   716 ;;                  1    wreg      void 
   717 ;; Registers used:
   718 ;;		wreg, status,2, status,0
   719 ;; Tracked objects:
   720 ;;		On entry : 0/0
   721 ;;		On exit  : 0/0
   722 ;;		Unchanged: 0/0
   723 ;; Data sizes:     COMMON   BANK0
   724 ;;      Params:         0       0
   725 ;;      Locals:         0       0
   726 ;;      Temps:          0       1
   727 ;;      Totals:         0       1
   728 ;;Total ram usage:        1 bytes
   729 ;; Hardware stack levels used: 1
   730 ;; Hardware stack levels required when called: 5
   731 ;; This function calls:
   732 ;;		Nothing
   733 ;; This function is called by:
   734 ;;		_Sleep_Init
   735 ;; This function uses a non-reentrant model
   736 ;;
   737                           
   738     01E8                     _Sleep_Unused_GPIO_Config:	
   739                           ;psect for function _Sleep_Unused_GPIO_Config
   740                           
   741     01E8                     l944:	
   742                           ;incstack = 0
   743                           ; Regs used in _Sleep_Unused_GPIO_Config: [wreg+status,2+status,0]
   744                           
   745                           
   746                           ;sleep.c: 75: LATA &=~ 1;
   747     01E8  30FE               	movlw	254
   748     01E9  00DA               	movwf	??_Sleep_Unused_GPIO_Config
   749     01EA  085A               	movf	??_Sleep_Unused_GPIO_Config,w
   750     01EB  0587               	andwf	7,f	;volatile
   751     01EC                     l93:
   752     01EC  0008               	return
   753     01ED                     __end_of_Sleep_Unused_GPIO_Config:
   754                           
   755                           	psect	text3
   756     01F3                     __ptext3:	
   757 ;; *************** function _PWM_Clear_Execution_Status *****************
   758 ;; Defined at:
   759 ;;		line 20 in file "pwm.c"
   760 ;; Parameters:    Size  Location     Type
   761 ;;		None
   762 ;; Auto vars:     Size  Location     Type
   763 ;;		None
   764 ;; Return value:  Size  Location     Type
   765 ;;                  1    wreg      void 
   766 ;; Registers used:
   767 ;;		status,2
   768 ;; Tracked objects:
   769 ;;		On entry : 0/0
   770 ;;		On exit  : 0/0
   771 ;;		Unchanged: 0/0
   772 ;; Data sizes:     COMMON   BANK0
   773 ;;      Params:         0       0
   774 ;;      Locals:         0       0
   775 ;;      Temps:          0       0
   776 ;;      Totals:         0       0
   777 ;;Total ram usage:        0 bytes
   778 ;; Hardware stack levels used: 1
   779 ;; Hardware stack levels required when called: 5
   780 ;; This function calls:
   781 ;;		Nothing
   782 ;; This function is called by:
   783 ;;		_main
   784 ;; This function uses a non-reentrant model
   785 ;;
   786                           
   787     01F3                     _PWM_Clear_Execution_Status:	
   788                           ;psect for function _PWM_Clear_Execution_Status
   789                           
   790     01F3                     l974:	
   791                           ;incstack = 0
   792                           ; Regs used in _PWM_Clear_Execution_Status: [status,2]
   793                           
   794                           
   795                           ;pwm.c: 21: executed=0;
   796     01F3  01DD               	clrf	_executed	;volatile
   797     01F4                     l55:
   798     01F4  0008               	return
   799     01F5                     __end_of_PWM_Clear_Execution_Status:
   800                           
   801                           	psect	text4
   802     01C4                     __ptext4:	
   803 ;; *************** function _Button_Init *****************
   804 ;; Defined at:
   805 ;;		line 39 in file "button.c"
   806 ;; Parameters:    Size  Location     Type
   807 ;;		None
   808 ;; Auto vars:     Size  Location     Type
   809 ;;		None
   810 ;; Return value:  Size  Location     Type
   811 ;;                  1    wreg      void 
   812 ;; Registers used:
   813 ;;		wreg, status,2, status,0
   814 ;; Tracked objects:
   815 ;;		On entry : 0/0
   816 ;;		On exit  : 0/0
   817 ;;		Unchanged: 0/0
   818 ;; Data sizes:     COMMON   BANK0
   819 ;;      Params:         0       0
   820 ;;      Locals:         0       0
   821 ;;      Temps:          0       1
   822 ;;      Totals:         0       1
   823 ;;Total ram usage:        1 bytes
   824 ;; Hardware stack levels used: 1
   825 ;; Hardware stack levels required when called: 5
   826 ;; This function calls:
   827 ;;		Nothing
   828 ;; This function is called by:
   829 ;;		_main
   830 ;; This function uses a non-reentrant model
   831 ;;
   832                           
   833     01C4                     _Button_Init:	
   834                           ;psect for function _Button_Init
   835                           
   836     01C4                     l956:	
   837                           ;incstack = 0
   838                           ; Regs used in _Button_Init: [wreg+status,2+status,0]
   839                           
   840                           
   841                           ;button.c: 40: TRISA =(1<<2);
   842     01C4  3004               	movlw	4
   843     01C5  0086               	movwf	6	;volatile
   844     01C6                     l958:
   845                           
   846                           ;button.c: 41: ANSELA=0x00;
   847     01C6  0188               	clrf	8	;volatile
   848     01C7                     l960:
   849                           
   850                           ;button.c: 42: INTCON = 0;
   851     01C7  018B               	clrf	11	;volatile
   852     01C8                     l962:
   853                           
   854                           ;button.c: 43: OPTION_REG&=~0xC0;
   855     01C8  303F               	movlw	63
   856     01C9  00DA               	movwf	??_Button_Init
   857     01CA  085A               	movf	??_Button_Init,w
   858     01CB  058E               	andwf	14,f	;volatile
   859     01CC                     l964:
   860                           
   861                           ;button.c: 44: INTCON=0x90;
   862     01CC  3090               	movlw	144
   863     01CD  008B               	movwf	11	;volatile
   864     01CE                     l125:
   865     01CE  0008               	return
   866     01CF                     __end_of_Button_Init:
   867                           
   868                           	psect	text5
   869     01F5                     __ptext5:	
   870 ;; *************** function _Button_Get_Sleep_Mode *****************
   871 ;; Defined at:
   872 ;;		line 59 in file "button.c"
   873 ;; Parameters:    Size  Location     Type
   874 ;;		None
   875 ;; Auto vars:     Size  Location     Type
   876 ;;		None
   877 ;; Return value:  Size  Location     Type
   878 ;;                  1    wreg      unsigned char 
   879 ;; Registers used:
   880 ;;		wreg
   881 ;; Tracked objects:
   882 ;;		On entry : 0/0
   883 ;;		On exit  : 0/0
   884 ;;		Unchanged: 0/0
   885 ;; Data sizes:     COMMON   BANK0
   886 ;;      Params:         0       0
   887 ;;      Locals:         0       0
   888 ;;      Temps:          0       0
   889 ;;      Totals:         0       0
   890 ;;Total ram usage:        0 bytes
   891 ;; Hardware stack levels used: 1
   892 ;; Hardware stack levels required when called: 5
   893 ;; This function calls:
   894 ;;		Nothing
   895 ;; This function is called by:
   896 ;;		_main
   897 ;; This function uses a non-reentrant model
   898 ;;
   899                           
   900     01F5                     _Button_Get_Sleep_Mode:	
   901                           ;psect for function _Button_Get_Sleep_Mode
   902                           
   903     01F5                     l976:	
   904                           ;incstack = 0
   905                           ; Regs used in _Button_Get_Sleep_Mode: [wreg]
   906                           
   907                           
   908                           ;button.c: 60: return sleep_mode;
   909     01F5  085B               	movf	_sleep_mode,w	;volatile
   910     01F6                     l137:
   911     01F6  0008               	return
   912     01F7                     __end_of_Button_Get_Sleep_Mode:
   913                           
   914                           	psect	text6
   915     01E0                     __ptext6:	
   916 ;; *************** function _ISRs *****************
   917 ;; Defined at:
   918 ;;		line 31 in file "main.c"
   919 ;; Parameters:    Size  Location     Type
   920 ;;		None
   921 ;; Auto vars:     Size  Location     Type
   922 ;;		None
   923 ;; Return value:  Size  Location     Type
   924 ;;                  1    wreg      void 
   925 ;; Registers used:
   926 ;;		wreg, status,2, status,0, pclath, cstack
   927 ;; Tracked objects:
   928 ;;		On entry : 0/0
   929 ;;		On exit  : 0/0
   930 ;;		Unchanged: 0/0
   931 ;; Data sizes:     COMMON   BANK0
   932 ;;      Params:         0       0
   933 ;;      Locals:         0       0
   934 ;;      Temps:          0       2
   935 ;;      Totals:         0       2
   936 ;;Total ram usage:        2 bytes
   937 ;; Hardware stack levels used: 1
   938 ;; Hardware stack levels required when called: 4
   939 ;; This function calls:
   940 ;;		_Button_ISR_Executables
   941 ;; This function is called by:
   942 ;;		Interrupt level 1
   943 ;; This function uses a non-reentrant model
   944 ;;
   945                           
   946     01E0                     _ISRs:	
   947                           ;psect for function _ISRs
   948                           
   949     01E0                     i1l1020:
   950                           
   951                           ;main.c: 32: Button_ISR_Executables();
   952     01E0  210F               	fcall	_Button_ISR_Executables
   953     01E1                     i1l24:
   954     01E1  0859               	movf	??_ISRs+1,w
   955     01E2  008A               	movwf	10
   956     01E3  0E58               	swapf	??_ISRs,w
   957     01E4  0083               	movwf	3
   958     01E5  0EFE               	swapf	btemp,f
   959     01E6  0E7E               	swapf	btemp,w
   960     01E7  0009               	retfie
   961     01E8                     __end_of_ISRs:
   962                           
   963                           	psect	intentry
   964     0004                     __pintentry:	
   965                           ;incstack = 0
   966                           ; Regs used in _ISRs: [wreg+status,2+status,0+pclath+cstack]
   967                           
   968     0004                     interrupt_function:
   969     007E                     saved_w	set	btemp
   970     0004  00FE               	movwf	btemp
   971     0005  0E03               	swapf	3,w
   972     0006  00D8               	movwf	??_ISRs
   973     0007  080A               	movf	10,w
   974     0008  00D9               	movwf	??_ISRs+1
   975     0009  29E0               	ljmp	_ISRs
   976                           
   977                           	psect	text7
   978     010F                     __ptext7:	
   979 ;; *************** function _Button_ISR_Executables *****************
   980 ;; Defined at:
   981 ;;		line 64 in file "button.c"
   982 ;; Parameters:    Size  Location     Type
   983 ;;		None
   984 ;; Auto vars:     Size  Location     Type
   985 ;;		None
   986 ;; Return value:  Size  Location     Type
   987 ;;                  1    wreg      void 
   988 ;; Registers used:
   989 ;;		wreg, status,2, status,0, pclath, cstack
   990 ;; Tracked objects:
   991 ;;		On entry : 0/0
   992 ;;		On exit  : 0/0
   993 ;;		Unchanged: 0/0
   994 ;; Data sizes:     COMMON   BANK0
   995 ;;      Params:         0       0
   996 ;;      Locals:         0       0
   997 ;;      Temps:          0       2
   998 ;;      Totals:         0       2
   999 ;;Total ram usage:        2 bytes
  1000 ;; Hardware stack levels used: 1
  1001 ;; Hardware stack levels required when called: 3
  1002 ;; This function calls:
  1003 ;;		_Button_Get_State
  1004 ;;		_Button_Set_Active_Mode
  1005 ;;		_Button_Set_Sleep_Mode
  1006 ;;		_PWM_Off
  1007 ;;		_PWM_On_100_Percent_Duty_Cycle
  1008 ;;		_PWM_On_20_Percent_Duty_Cycle
  1009 ;;		_PWM_On_50_Percent_Duty_Cycle
  1010 ;;		i1_PWM_Clear_Execution_Status
  1011 ;; This function is called by:
  1012 ;;		_ISRs
  1013 ;; This function uses a non-reentrant model
  1014 ;;
  1015                           
  1016     010F                     _Button_ISR_Executables:	
  1017                           ;psect for function _Button_ISR_Executables
  1018                           
  1019     010F                     i1l980:	
  1020                           ;incstack = 0
  1021                           ; Regs used in _Button_ISR_Executables: [wreg+status,2+status,0+pclath+cstack]
  1022                           
  1023                           
  1024                           ;button.c: 65: if(INTCON & (1<<1)){
  1025     010F  1C8B               	btfss	11,1	;volatile
  1026     0110  2912               	goto	u43_21
  1027     0111  2913               	goto	u43_20
  1028     0112                     u43_21:
  1029     0112  2950               	goto	i1l152
  1030     0113                     u43_20:
  1031     0113                     i1l982:
  1032                           
  1033                           ;button.c: 66: _delay((unsigned long)((5)*(8000000/4000.0)));
  1034     0113  300D               	movlw	13
  1035     0114  00D7               	movwf	??_Button_ISR_Executables+1
  1036     0115  30FB               	movlw	251
  1037     0116  00D6               	movwf	??_Button_ISR_Executables
  1038     0117                     u51_27:
  1039     0117  0BD6               	decfsz	??_Button_ISR_Executables,f
  1040     0118  2917               	goto	u51_27
  1041     0119  0BD7               	decfsz	??_Button_ISR_Executables+1,f
  1042     011A  2917               	goto	u51_27
  1043     011B  291C               	nop2
  1044     011C                     i1l141:	
  1045                           ;button.c: 67: while( (PORTA & 0x04) == 0 );
  1046                           
  1047     011C  1D05               	btfss	5,2	;volatile
  1048     011D  291F               	goto	u44_21
  1049     011E  2920               	goto	u44_20
  1050     011F                     u44_21:
  1051     011F  291C               	goto	i1l141
  1052     0120                     u44_20:
  1053     0120                     i1l984:
  1054                           
  1055                           ;button.c: 69: Button_State++;
  1056     0120  3001               	movlw	1
  1057     0121  00D6               	movwf	??_Button_ISR_Executables
  1058     0122  0856               	movf	??_Button_ISR_Executables,w
  1059     0123  07DC               	addwf	_Button_State,f	;volatile
  1060     0124                     i1l986:
  1061                           
  1062                           ;button.c: 70: if(Button_State>3){
  1063     0124  3004               	movlw	4
  1064     0125  025C               	subwf	_Button_State,w	;volatile
  1065     0126  1C03               	skipc
  1066     0127  2929               	goto	u45_21
  1067     0128  292A               	goto	u45_20
  1068     0129                     u45_21:
  1069     0129  292B               	goto	i1l990
  1070     012A                     u45_20:
  1071     012A                     i1l988:
  1072                           
  1073                           ;button.c: 71: Button_State=0;
  1074     012A  01DC               	clrf	_Button_State	;volatile
  1075     012B                     i1l990:
  1076                           
  1077                           ;button.c: 72: };button.c: 74: PWM_Clear_Execution_Status();
  1078     012B  21F7               	fcall	i1_PWM_Clear_Execution_Status
  1079     012C                     i1l992:
  1080                           
  1081                           ;button.c: 75: if(Button_State==0){
  1082     012C  085C               	movf	_Button_State,w	;volatile
  1083     012D  1D03               	btfss	3,2
  1084     012E  2930               	goto	u46_21
  1085     012F  2931               	goto	u46_20
  1086     0130                     u46_21:
  1087     0130  2934               	goto	i1l996
  1088     0131                     u46_20:
  1089     0131                     i1l994:
  1090                           
  1091                           ;button.c: 76: PWM_Off();
  1092     0131  21CF               	fcall	_PWM_Off
  1093                           
  1094                           ;button.c: 77: Button_Set_Sleep_Mode();
  1095     0132  21F0               	fcall	_Button_Set_Sleep_Mode
  1096                           
  1097                           ;button.c: 78: }else{
  1098     0133  294C               	goto	i1l1010
  1099     0134                     i1l996:
  1100                           
  1101                           ;button.c: 79: if(Button_Get_State() == 1){
  1102     0134  21FD               	fcall	_Button_Get_State
  1103     0135  3A01               	xorlw	1
  1104     0136  1D03               	skipz
  1105     0137  2939               	goto	u47_21
  1106     0138  293A               	goto	u47_20
  1107     0139                     u47_21:
  1108     0139  293C               	goto	i1l1000
  1109     013A                     u47_20:
  1110     013A                     i1l998:
  1111                           
  1112                           ;button.c: 80: PWM_On_20_Percent_Duty_Cycle();
  1113     013A  2192               	fcall	_PWM_On_20_Percent_Duty_Cycle
  1114                           
  1115                           ;button.c: 81: }else if(Button_Get_State() == 2){
  1116     013B  294B               	goto	i1l1008
  1117     013C                     i1l1000:
  1118     013C  21FD               	fcall	_Button_Get_State
  1119     013D  3A02               	xorlw	2
  1120     013E  1D03               	skipz
  1121     013F  2941               	goto	u48_21
  1122     0140  2942               	goto	u48_20
  1123     0141                     u48_21:
  1124     0141  2944               	goto	i1l1004
  1125     0142                     u48_20:
  1126     0142                     i1l1002:
  1127                           
  1128                           ;button.c: 82: PWM_On_50_Percent_Duty_Cycle();
  1129     0142  217F               	fcall	_PWM_On_50_Percent_Duty_Cycle
  1130                           
  1131                           ;button.c: 83: }else if(Button_Get_State() == 3){
  1132     0143  294B               	goto	i1l1008
  1133     0144                     i1l1004:
  1134     0144  21FD               	fcall	_Button_Get_State
  1135     0145  3A03               	xorlw	3
  1136     0146  1D03               	skipz
  1137     0147  2949               	goto	u49_21
  1138     0148  294A               	goto	u49_20
  1139     0149                     u49_21:
  1140     0149  294B               	goto	i1l1008
  1141     014A                     u49_20:
  1142     014A                     i1l1006:
  1143                           
  1144                           ;button.c: 84: PWM_On_100_Percent_Duty_Cycle();
  1145     014A  21A5               	fcall	_PWM_On_100_Percent_Duty_Cycle
  1146     014B                     i1l1008:
  1147                           
  1148                           ;button.c: 85: };button.c: 86: Button_Set_Active_Mode();
  1149     014B  21FB               	fcall	_Button_Set_Active_Mode
  1150     014C                     i1l1010:
  1151                           
  1152                           ;button.c: 87: };button.c: 88: INTCON&=~0x02;
  1153     014C  30FD               	movlw	253
  1154     014D  00D6               	movwf	??_Button_ISR_Executables
  1155     014E  0856               	movf	??_Button_ISR_Executables,w
  1156     014F  058B               	andwf	11,f	;volatile
  1157     0150                     i1l152:
  1158     0150  0008               	return
  1159     0151                     __end_of_Button_ISR_Executables:
  1160                           
  1161                           	psect	text8
  1162     01F7                     __ptext8:	
  1163 ;; *************** function i1_PWM_Clear_Execution_Status *****************
  1164 ;; Defined at:
  1165 ;;		line 20 in file "pwm.c"
  1166 ;; Parameters:    Size  Location     Type
  1167 ;;		None
  1168 ;; Auto vars:     Size  Location     Type
  1169 ;;		None
  1170 ;; Return value:  Size  Location     Type
  1171 ;;                  1    wreg      void 
  1172 ;; Registers used:
  1173 ;;		status,2
  1174 ;; Tracked objects:
  1175 ;;		On entry : 0/0
  1176 ;;		On exit  : 0/0
  1177 ;;		Unchanged: 0/0
  1178 ;; Data sizes:     COMMON   BANK0
  1179 ;;      Params:         0       0
  1180 ;;      Locals:         0       0
  1181 ;;      Temps:          0       0
  1182 ;;      Totals:         0       0
  1183 ;;Total ram usage:        0 bytes
  1184 ;; Hardware stack levels used: 1
  1185 ;; This function calls:
  1186 ;;		Nothing
  1187 ;; This function is called by:
  1188 ;;		_Button_ISR_Executables
  1189 ;; This function uses a non-reentrant model
  1190 ;;
  1191                           
  1192     01F7                     i1_PWM_Clear_Execution_Status:	
  1193                           ;psect for function i1_PWM_Clear_Execution_Status
  1194                           
  1195     01F7                     i1l954:	
  1196                           ;incstack = 0
  1197                           ; Regs used in i1_PWM_Clear_Execution_Status: [status,2]
  1198                           
  1199                           
  1200                           ;pwm.c: 21: executed=0;
  1201     01F7  01DD               	clrf	_executed	;volatile
  1202     01F8                     i1l55:
  1203     01F8  0008               	return
  1204     01F9                     __end_ofi1_PWM_Clear_Execution_Status:
  1205                           
  1206                           	psect	text9
  1207     017F                     __ptext9:	
  1208 ;; *************** function _PWM_On_50_Percent_Duty_Cycle *****************
  1209 ;; Defined at:
  1210 ;;		line 69 in file "pwm.c"
  1211 ;; Parameters:    Size  Location     Type
  1212 ;;		None
  1213 ;; Auto vars:     Size  Location     Type
  1214 ;;		None
  1215 ;; Return value:  Size  Location     Type
  1216 ;;                  1    wreg      void 
  1217 ;; Registers used:
  1218 ;;		wreg, status,2, status,0, pclath, cstack
  1219 ;; Tracked objects:
  1220 ;;		On entry : 0/0
  1221 ;;		On exit  : 0/0
  1222 ;;		Unchanged: 0/0
  1223 ;; Data sizes:     COMMON   BANK0
  1224 ;;      Params:         0       0
  1225 ;;      Locals:         0       0
  1226 ;;      Temps:          0       0
  1227 ;;      Totals:         0       0
  1228 ;;Total ram usage:        0 bytes
  1229 ;; Hardware stack levels used: 1
  1230 ;; Hardware stack levels required when called: 2
  1231 ;; This function calls:
  1232 ;;		_PWM_Disable
  1233 ;;		_PWM_Enable
  1234 ;;		_PWM_Get_Execution_Status
  1235 ;;		_PWM_Set_Duty
  1236 ;;		_PWM_Set_Execution_Status
  1237 ;; This function is called by:
  1238 ;;		_Button_ISR_Executables
  1239 ;; This function uses a non-reentrant model
  1240 ;;
  1241                           
  1242     017F                     _PWM_On_50_Percent_Duty_Cycle:	
  1243                           ;psect for function _PWM_On_50_Percent_Duty_Cycle
  1244                           
  1245     017F                     i1l932:	
  1246                           ;incstack = 0
  1247                           ; Regs used in _PWM_On_50_Percent_Duty_Cycle: [wreg+status,2+status,0+pclath+cstack]
  1248                           
  1249                           
  1250                           ;pwm.c: 70: if(PWM_Get_Execution_Status()==0){
  1251     017F  21F9               	fcall	_PWM_Get_Execution_Status
  1252     0180  3A00               	xorlw	0
  1253     0181  1D03               	skipz
  1254     0182  2984               	goto	u40_21
  1255     0183  2985               	goto	u40_20
  1256     0184                     u40_21:
  1257     0184  2991               	goto	i1l72
  1258     0185                     u40_20:
  1259     0185                     i1l934:
  1260                           
  1261                           ;pwm.c: 71: PWM_Disable();
  1262     0185  216B               	fcall	_PWM_Disable
  1263                           
  1264                           ;pwm.c: 72: PWM_Enable();
  1265     0186  2151               	fcall	_PWM_Enable
  1266                           
  1267                           ;pwm.c: 73: PWM_Set_Duty(50);
  1268     0187  3000               	movlw	0
  1269     0188  00D1               	movwf	PWM_Set_Duty@duty+3
  1270     0189  3000               	movlw	0
  1271     018A  00D0               	movwf	PWM_Set_Duty@duty+2
  1272     018B  3000               	movlw	0
  1273     018C  00CF               	movwf	PWM_Set_Duty@duty+1
  1274     018D  3032               	movlw	50
  1275     018E  00CE               	movwf	PWM_Set_Duty@duty
  1276     018F  2076               	fcall	_PWM_Set_Duty
  1277                           
  1278                           ;pwm.c: 74: PWM_Set_Execution_Status();
  1279     0190  21ED               	fcall	_PWM_Set_Execution_Status
  1280     0191                     i1l72:
  1281     0191  0008               	return
  1282     0192                     __end_of_PWM_On_50_Percent_Duty_Cycle:
  1283                           
  1284                           	psect	text10
  1285     0192                     __ptext10:	
  1286 ;; *************** function _PWM_On_20_Percent_Duty_Cycle *****************
  1287 ;; Defined at:
  1288 ;;		line 60 in file "pwm.c"
  1289 ;; Parameters:    Size  Location     Type
  1290 ;;		None
  1291 ;; Auto vars:     Size  Location     Type
  1292 ;;		None
  1293 ;; Return value:  Size  Location     Type
  1294 ;;                  1    wreg      void 
  1295 ;; Registers used:
  1296 ;;		wreg, status,2, status,0, pclath, cstack
  1297 ;; Tracked objects:
  1298 ;;		On entry : 0/0
  1299 ;;		On exit  : 0/0
  1300 ;;		Unchanged: 0/0
  1301 ;; Data sizes:     COMMON   BANK0
  1302 ;;      Params:         0       0
  1303 ;;      Locals:         0       0
  1304 ;;      Temps:          0       0
  1305 ;;      Totals:         0       0
  1306 ;;Total ram usage:        0 bytes
  1307 ;; Hardware stack levels used: 1
  1308 ;; Hardware stack levels required when called: 2
  1309 ;; This function calls:
  1310 ;;		_PWM_Disable
  1311 ;;		_PWM_Enable
  1312 ;;		_PWM_Get_Execution_Status
  1313 ;;		_PWM_Set_Duty
  1314 ;;		_PWM_Set_Execution_Status
  1315 ;; This function is called by:
  1316 ;;		_Button_ISR_Executables
  1317 ;; This function uses a non-reentrant model
  1318 ;;
  1319                           
  1320     0192                     _PWM_On_20_Percent_Duty_Cycle:	
  1321                           ;psect for function _PWM_On_20_Percent_Duty_Cycle
  1322                           
  1323     0192                     i1l928:	
  1324                           ;incstack = 0
  1325                           ; Regs used in _PWM_On_20_Percent_Duty_Cycle: [wreg+status,2+status,0+pclath+cstack]
  1326                           
  1327                           
  1328                           ;pwm.c: 61: if(PWM_Get_Execution_Status()==0){
  1329     0192  21F9               	fcall	_PWM_Get_Execution_Status
  1330     0193  3A00               	xorlw	0
  1331     0194  1D03               	skipz
  1332     0195  2997               	goto	u39_21
  1333     0196  2998               	goto	u39_20
  1334     0197                     u39_21:
  1335     0197  29A4               	goto	i1l68
  1336     0198                     u39_20:
  1337     0198                     i1l930:
  1338                           
  1339                           ;pwm.c: 62: PWM_Disable();
  1340     0198  216B               	fcall	_PWM_Disable
  1341                           
  1342                           ;pwm.c: 63: PWM_Enable();
  1343     0199  2151               	fcall	_PWM_Enable
  1344                           
  1345                           ;pwm.c: 64: PWM_Set_Duty(20);
  1346     019A  3000               	movlw	0
  1347     019B  00D1               	movwf	PWM_Set_Duty@duty+3
  1348     019C  3000               	movlw	0
  1349     019D  00D0               	movwf	PWM_Set_Duty@duty+2
  1350     019E  3000               	movlw	0
  1351     019F  00CF               	movwf	PWM_Set_Duty@duty+1
  1352     01A0  3014               	movlw	20
  1353     01A1  00CE               	movwf	PWM_Set_Duty@duty
  1354     01A2  2076               	fcall	_PWM_Set_Duty
  1355                           
  1356                           ;pwm.c: 65: PWM_Set_Execution_Status();
  1357     01A3  21ED               	fcall	_PWM_Set_Execution_Status
  1358     01A4                     i1l68:
  1359     01A4  0008               	return
  1360     01A5                     __end_of_PWM_On_20_Percent_Duty_Cycle:
  1361                           
  1362                           	psect	text11
  1363     01A5                     __ptext11:	
  1364 ;; *************** function _PWM_On_100_Percent_Duty_Cycle *****************
  1365 ;; Defined at:
  1366 ;;		line 78 in file "pwm.c"
  1367 ;; Parameters:    Size  Location     Type
  1368 ;;		None
  1369 ;; Auto vars:     Size  Location     Type
  1370 ;;		None
  1371 ;; Return value:  Size  Location     Type
  1372 ;;                  1    wreg      void 
  1373 ;; Registers used:
  1374 ;;		wreg, status,2, status,0, pclath, cstack
  1375 ;; Tracked objects:
  1376 ;;		On entry : 0/0
  1377 ;;		On exit  : 0/0
  1378 ;;		Unchanged: 0/0
  1379 ;; Data sizes:     COMMON   BANK0
  1380 ;;      Params:         0       0
  1381 ;;      Locals:         0       0
  1382 ;;      Temps:          0       0
  1383 ;;      Totals:         0       0
  1384 ;;Total ram usage:        0 bytes
  1385 ;; Hardware stack levels used: 1
  1386 ;; Hardware stack levels required when called: 2
  1387 ;; This function calls:
  1388 ;;		_PWM_Disable
  1389 ;;		_PWM_Enable
  1390 ;;		_PWM_Get_Execution_Status
  1391 ;;		_PWM_Set_Duty
  1392 ;;		_PWM_Set_Execution_Status
  1393 ;; This function is called by:
  1394 ;;		_Button_ISR_Executables
  1395 ;; This function uses a non-reentrant model
  1396 ;;
  1397                           
  1398     01A5                     _PWM_On_100_Percent_Duty_Cycle:	
  1399                           ;psect for function _PWM_On_100_Percent_Duty_Cycle
  1400                           
  1401     01A5                     i1l936:	
  1402                           ;incstack = 0
  1403                           ; Regs used in _PWM_On_100_Percent_Duty_Cycle: [wreg+status,2+status,0+pclath+cstack]
  1404                           
  1405                           
  1406                           ;pwm.c: 79: if(PWM_Get_Execution_Status()==0){
  1407     01A5  21F9               	fcall	_PWM_Get_Execution_Status
  1408     01A6  3A00               	xorlw	0
  1409     01A7  1D03               	skipz
  1410     01A8  29AA               	goto	u41_21
  1411     01A9  29AB               	goto	u41_20
  1412     01AA                     u41_21:
  1413     01AA  29B7               	goto	i1l76
  1414     01AB                     u41_20:
  1415     01AB                     i1l938:
  1416                           
  1417                           ;pwm.c: 80: PWM_Disable();
  1418     01AB  216B               	fcall	_PWM_Disable
  1419                           
  1420                           ;pwm.c: 81: PWM_Enable();
  1421     01AC  2151               	fcall	_PWM_Enable
  1422                           
  1423                           ;pwm.c: 82: PWM_Set_Duty(95);
  1424     01AD  3000               	movlw	0
  1425     01AE  00D1               	movwf	PWM_Set_Duty@duty+3
  1426     01AF  3000               	movlw	0
  1427     01B0  00D0               	movwf	PWM_Set_Duty@duty+2
  1428     01B1  3000               	movlw	0
  1429     01B2  00CF               	movwf	PWM_Set_Duty@duty+1
  1430     01B3  305F               	movlw	95
  1431     01B4  00CE               	movwf	PWM_Set_Duty@duty
  1432     01B5  2076               	fcall	_PWM_Set_Duty
  1433                           
  1434                           ;pwm.c: 83: PWM_Set_Execution_Status();
  1435     01B6  21ED               	fcall	_PWM_Set_Execution_Status
  1436     01B7                     i1l76:
  1437     01B7  0008               	return
  1438     01B8                     __end_of_PWM_On_100_Percent_Duty_Cycle:
  1439                           
  1440                           	psect	text12
  1441     0076                     __ptext12:	
  1442 ;; *************** function _PWM_Set_Duty *****************
  1443 ;; Defined at:
  1444 ;;		line 24 in file "pwm.c"
  1445 ;; Parameters:    Size  Location     Type
  1446 ;;  duty            4   14[BANK0 ] unsigned long 
  1447 ;; Auto vars:     Size  Location     Type
  1448 ;;  temp            2   20[BANK0 ] unsigned int 
  1449 ;; Return value:  Size  Location     Type
  1450 ;;                  1    wreg      void 
  1451 ;; Registers used:
  1452 ;;		wreg, status,2, status,0, pclath, cstack
  1453 ;; Tracked objects:
  1454 ;;		On entry : 0/0
  1455 ;;		On exit  : 0/0
  1456 ;;		Unchanged: 0/0
  1457 ;; Data sizes:     COMMON   BANK0
  1458 ;;      Params:         0       4
  1459 ;;      Locals:         0       2
  1460 ;;      Temps:          0       2
  1461 ;;      Totals:         0       8
  1462 ;;Total ram usage:        8 bytes
  1463 ;; Hardware stack levels used: 1
  1464 ;; Hardware stack levels required when called: 1
  1465 ;; This function calls:
  1466 ;;		___lldiv
  1467 ;;		___lmul
  1468 ;; This function is called by:
  1469 ;;		_PWM_On_20_Percent_Duty_Cycle
  1470 ;;		_PWM_On_50_Percent_Duty_Cycle
  1471 ;;		_PWM_On_100_Percent_Duty_Cycle
  1472 ;; This function uses a non-reentrant model
  1473 ;;
  1474                           
  1475     0076                     _PWM_Set_Duty:	
  1476                           ;psect for function _PWM_Set_Duty
  1477                           
  1478     0076                     i1l886:	
  1479                           ;incstack = 0
  1480                           ; Regs used in _PWM_Set_Duty: [wreg+status,2+status,0+pclath+cstack]
  1481                           
  1482                           
  1483                           ;pwm.c: 25: duty*=1023;
  1484     0076  3000               	movlw	0
  1485     0077  00C3               	movwf	___lmul@multiplier+3
  1486     0078  3000               	movlw	0
  1487     0079  00C2               	movwf	___lmul@multiplier+2
  1488     007A  3003               	movlw	3
  1489     007B  00C1               	movwf	___lmul@multiplier+1
  1490     007C  30FF               	movlw	255
  1491     007D  00C0               	movwf	___lmul@multiplier
  1492     007E  0851               	movf	PWM_Set_Duty@duty+3,w
  1493     007F  00C7               	movwf	___lmul@multiplicand+3
  1494     0080  0850               	movf	PWM_Set_Duty@duty+2,w
  1495     0081  00C6               	movwf	___lmul@multiplicand+2
  1496     0082  084F               	movf	PWM_Set_Duty@duty+1,w
  1497     0083  00C5               	movwf	___lmul@multiplicand+1
  1498     0084  084E               	movf	PWM_Set_Duty@duty,w
  1499     0085  00C4               	movwf	___lmul@multiplicand
  1500     0086  20C9               	fcall	___lmul
  1501     0087  0843               	movf	?___lmul+3,w
  1502     0088  00D1               	movwf	PWM_Set_Duty@duty+3
  1503     0089  0842               	movf	?___lmul+2,w
  1504     008A  00D0               	movwf	PWM_Set_Duty@duty+2
  1505     008B  0841               	movf	?___lmul+1,w
  1506     008C  00CF               	movwf	PWM_Set_Duty@duty+1
  1507     008D  0840               	movf	?___lmul,w
  1508     008E  00CE               	movwf	PWM_Set_Duty@duty
  1509                           
  1510                           ;pwm.c: 26: duty/=100;
  1511     008F  3000               	movlw	0
  1512     0090  00C3               	movwf	___lldiv@divisor+3
  1513     0091  3000               	movlw	0
  1514     0092  00C2               	movwf	___lldiv@divisor+2
  1515     0093  3000               	movlw	0
  1516     0094  00C1               	movwf	___lldiv@divisor+1
  1517     0095  3064               	movlw	100
  1518     0096  00C0               	movwf	___lldiv@divisor
  1519     0097  0851               	movf	PWM_Set_Duty@duty+3,w
  1520     0098  00C7               	movwf	___lldiv@dividend+3
  1521     0099  0850               	movf	PWM_Set_Duty@duty+2,w
  1522     009A  00C6               	movwf	___lldiv@dividend+2
  1523     009B  084F               	movf	PWM_Set_Duty@duty+1,w
  1524     009C  00C5               	movwf	___lldiv@dividend+1
  1525     009D  084E               	movf	PWM_Set_Duty@duty,w
  1526     009E  00C4               	movwf	___lldiv@dividend
  1527     009F  2010               	fcall	___lldiv
  1528     00A0  0843               	movf	?___lldiv+3,w
  1529     00A1  00D1               	movwf	PWM_Set_Duty@duty+3
  1530     00A2  0842               	movf	?___lldiv+2,w
  1531     00A3  00D0               	movwf	PWM_Set_Duty@duty+2
  1532     00A4  0841               	movf	?___lldiv+1,w
  1533     00A5  00CF               	movwf	PWM_Set_Duty@duty+1
  1534     00A6  0840               	movf	?___lldiv,w
  1535     00A7  00CE               	movwf	PWM_Set_Duty@duty
  1536     00A8                     i1l888:
  1537                           
  1538                           ;pwm.c: 27: uint16_t temp=duty;
  1539     00A8  084F               	movf	PWM_Set_Duty@duty+1,w
  1540     00A9  00D5               	movwf	PWM_Set_Duty@temp+1
  1541     00AA  084E               	movf	PWM_Set_Duty@duty,w
  1542     00AB  00D4               	movwf	PWM_Set_Duty@temp
  1543     00AC                     i1l890:
  1544                           
  1545                           ;pwm.c: 28: temp&=0x3FF;
  1546     00AC  30FF               	movlw	255
  1547     00AD  05D4               	andwf	PWM_Set_Duty@temp,f
  1548     00AE  3003               	movlw	3
  1549     00AF  05D5               	andwf	PWM_Set_Duty@temp+1,f
  1550     00B0                     i1l892:
  1551                           
  1552                           ;pwm.c: 29: PWM2DCH=(temp>>2);
  1553     00B0  0855               	movf	PWM_Set_Duty@temp+1,w
  1554     00B1  00D3               	movwf	??_PWM_Set_Duty+1
  1555     00B2  0854               	movf	PWM_Set_Duty@temp,w
  1556     00B3  00D2               	movwf	??_PWM_Set_Duty
  1557     00B4  1003               	clrc
  1558     00B5  0CD3               	rrf	??_PWM_Set_Duty+1,f
  1559     00B6  0CD2               	rrf	??_PWM_Set_Duty,f
  1560     00B7  1003               	clrc
  1561     00B8  0CD3               	rrf	??_PWM_Set_Duty+1,f
  1562     00B9  0CD2               	rrf	??_PWM_Set_Duty,f
  1563     00BA  0852               	movf	??_PWM_Set_Duty,w
  1564     00BB  0098               	movwf	24	;volatile
  1565     00BC                     i1l894:
  1566                           
  1567                           ;pwm.c: 30: PWM2DCL=(temp&0x03)<<6;
  1568     00BC  0854               	movf	PWM_Set_Duty@temp,w
  1569     00BD  3903               	andlw	3
  1570     00BE  00D2               	movwf	??_PWM_Set_Duty
  1571     00BF  3005               	movlw	5
  1572     00C0                     u38_25:
  1573     00C0  1003               	clrc
  1574     00C1  0DD2               	rlf	??_PWM_Set_Duty,f
  1575     00C2  3EFF               	addlw	-1
  1576     00C3  1D03               	skipz
  1577     00C4  28C0               	goto	u38_25
  1578     00C5  1003               	clrc
  1579     00C6  0D52               	rlf	??_PWM_Set_Duty,w
  1580     00C7  0097               	movwf	23	;volatile
  1581     00C8                     i1l58:
  1582     00C8  0008               	return
  1583     00C9                     __end_of_PWM_Set_Duty:
  1584                           
  1585                           	psect	text13
  1586     00C9                     __ptext13:	
  1587 ;; *************** function ___lmul *****************
  1588 ;; Defined at:
  1589 ;;		line 15 in file "C:\Program Files\Microchip\xc8\v2.40\pic\sources\c90\common\Umul32.c"
  1590 ;; Parameters:    Size  Location     Type
  1591 ;;  multiplier      4    0[BANK0 ] unsigned long 
  1592 ;;  multiplicand    4    4[BANK0 ] unsigned long 
  1593 ;; Auto vars:     Size  Location     Type
  1594 ;;  product         4    9[BANK0 ] unsigned long 
  1595 ;; Return value:  Size  Location     Type
  1596 ;;                  4    0[BANK0 ] unsigned long 
  1597 ;; Registers used:
  1598 ;;		wreg, status,2, status,0
  1599 ;; Tracked objects:
  1600 ;;		On entry : 0/0
  1601 ;;		On exit  : 0/0
  1602 ;;		Unchanged: 0/0
  1603 ;; Data sizes:     COMMON   BANK0
  1604 ;;      Params:         0       8
  1605 ;;      Locals:         0       4
  1606 ;;      Temps:          0       1
  1607 ;;      Totals:         0      13
  1608 ;;Total ram usage:       13 bytes
  1609 ;; Hardware stack levels used: 1
  1610 ;; This function calls:
  1611 ;;		Nothing
  1612 ;; This function is called by:
  1613 ;;		_PWM_Set_Duty
  1614 ;; This function uses a non-reentrant model
  1615 ;;
  1616                           
  1617     00C9                     ___lmul:	
  1618                           ;psect for function ___lmul
  1619                           
  1620     00C9                     i1l842:	
  1621                           ;incstack = 0
  1622                           ; Regs used in ___lmul: [wreg+status,2+status,0]
  1623                           
  1624     00C9  3000               	movlw	0
  1625     00CA  00CC               	movwf	___lmul@product+3
  1626     00CB  3000               	movlw	0
  1627     00CC  00CB               	movwf	___lmul@product+2
  1628     00CD  3000               	movlw	0
  1629     00CE  00CA               	movwf	___lmul@product+1
  1630     00CF  3000               	movlw	0
  1631     00D0  00C9               	movwf	___lmul@product
  1632     00D1                     i1l844:
  1633     00D1  1C40               	btfss	___lmul@multiplier,0
  1634     00D2  28D4               	goto	u26_21
  1635     00D3  28D5               	goto	u26_20
  1636     00D4                     u26_21:
  1637     00D4  28EC               	goto	i1l848
  1638     00D5                     u26_20:
  1639     00D5                     i1l846:
  1640     00D5  0844               	movf	___lmul@multiplicand,w
  1641     00D6  07C9               	addwf	___lmul@product,f
  1642     00D7  0845               	movf	___lmul@multiplicand+1,w
  1643     00D8  1103               	clrz
  1644     00D9  1803               	skipnc
  1645     00DA  3E01               	addlw	1
  1646     00DB  1903               	skipnz
  1647     00DC  28DE               	goto	u27_21
  1648     00DD  07CA               	addwf	___lmul@product+1,f
  1649     00DE                     u27_21:
  1650     00DE  0846               	movf	___lmul@multiplicand+2,w
  1651     00DF  1103               	clrz
  1652     00E0  1803               	skipnc
  1653     00E1  3E01               	addlw	1
  1654     00E2  1903               	skipnz
  1655     00E3  28E5               	goto	u27_22
  1656     00E4  07CB               	addwf	___lmul@product+2,f
  1657     00E5                     u27_22:
  1658     00E5  0847               	movf	___lmul@multiplicand+3,w
  1659     00E6  1103               	clrz
  1660     00E7  1803               	skipnc
  1661     00E8  3E01               	addlw	1
  1662     00E9  1903               	skipnz
  1663     00EA  28EC               	goto	u27_23
  1664     00EB  07CC               	addwf	___lmul@product+3,f
  1665     00EC                     u27_23:
  1666     00EC                     i1l848:
  1667     00EC  3001               	movlw	1
  1668     00ED  00C8               	movwf	??___lmul
  1669     00EE                     u28_25:
  1670     00EE  1003               	clrc
  1671     00EF  0DC4               	rlf	___lmul@multiplicand,f
  1672     00F0  0DC5               	rlf	___lmul@multiplicand+1,f
  1673     00F1  0DC6               	rlf	___lmul@multiplicand+2,f
  1674     00F2  0DC7               	rlf	___lmul@multiplicand+3,f
  1675     00F3  0BC8               	decfsz	??___lmul,f
  1676     00F4  28EE               	goto	u28_25
  1677     00F5                     i1l850:
  1678     00F5  3001               	movlw	1
  1679     00F6                     u29_25:
  1680     00F6  1003               	clrc
  1681     00F7  0CC3               	rrf	___lmul@multiplier+3,f
  1682     00F8  0CC2               	rrf	___lmul@multiplier+2,f
  1683     00F9  0CC1               	rrf	___lmul@multiplier+1,f
  1684     00FA  0CC0               	rrf	___lmul@multiplier,f
  1685     00FB  3EFF               	addlw	-1
  1686     00FC  1D03               	skipz
  1687     00FD  28F6               	goto	u29_25
  1688     00FE  0843               	movf	___lmul@multiplier+3,w
  1689     00FF  0442               	iorwf	___lmul@multiplier+2,w
  1690     0100  0441               	iorwf	___lmul@multiplier+1,w
  1691     0101  0440               	iorwf	___lmul@multiplier,w
  1692     0102  1D03               	skipz
  1693     0103  2905               	goto	u30_21
  1694     0104  2906               	goto	u30_20
  1695     0105                     u30_21:
  1696     0105  28D1               	goto	i1l844
  1697     0106                     u30_20:
  1698     0106                     i1l852:
  1699     0106  084C               	movf	___lmul@product+3,w
  1700     0107  00C3               	movwf	?___lmul+3
  1701     0108  084B               	movf	___lmul@product+2,w
  1702     0109  00C2               	movwf	?___lmul+2
  1703     010A  084A               	movf	___lmul@product+1,w
  1704     010B  00C1               	movwf	?___lmul+1
  1705     010C  0849               	movf	___lmul@product,w
  1706     010D  00C0               	movwf	?___lmul
  1707     010E                     i1l170:
  1708     010E  0008               	return
  1709     010F                     __end_of___lmul:
  1710                           
  1711                           	psect	text14
  1712     0010                     __ptext14:	
  1713 ;; *************** function ___lldiv *****************
  1714 ;; Defined at:
  1715 ;;		line 5 in file "C:\Program Files\Microchip\xc8\v2.40\pic\sources\c90\common\__lldiv.c"
  1716 ;; Parameters:    Size  Location     Type
  1717 ;;  divisor         4    0[BANK0 ] unsigned long 
  1718 ;;  dividend        4    4[BANK0 ] unsigned long 
  1719 ;; Auto vars:     Size  Location     Type
  1720 ;;  quotient        4    9[BANK0 ] unsigned long 
  1721 ;;  counter         1   13[BANK0 ] unsigned char 
  1722 ;; Return value:  Size  Location     Type
  1723 ;;                  4    0[BANK0 ] unsigned long 
  1724 ;; Registers used:
  1725 ;;		wreg, status,2, status,0
  1726 ;; Tracked objects:
  1727 ;;		On entry : 0/0
  1728 ;;		On exit  : 0/0
  1729 ;;		Unchanged: 0/0
  1730 ;; Data sizes:     COMMON   BANK0
  1731 ;;      Params:         0       8
  1732 ;;      Locals:         0       5
  1733 ;;      Temps:          0       1
  1734 ;;      Totals:         0      14
  1735 ;;Total ram usage:       14 bytes
  1736 ;; Hardware stack levels used: 1
  1737 ;; This function calls:
  1738 ;;		Nothing
  1739 ;; This function is called by:
  1740 ;;		_PWM_Set_Duty
  1741 ;; This function uses a non-reentrant model
  1742 ;;
  1743                           
  1744     0010                     ___lldiv:	
  1745                           ;psect for function ___lldiv
  1746                           
  1747     0010                     i1l856:	
  1748                           ;incstack = 0
  1749                           ; Regs used in ___lldiv: [wreg+status,2+status,0]
  1750                           
  1751     0010  3000               	movlw	0
  1752     0011  00CC               	movwf	___lldiv@quotient+3
  1753     0012  3000               	movlw	0
  1754     0013  00CB               	movwf	___lldiv@quotient+2
  1755     0014  3000               	movlw	0
  1756     0015  00CA               	movwf	___lldiv@quotient+1
  1757     0016  3000               	movlw	0
  1758     0017  00C9               	movwf	___lldiv@quotient
  1759     0018  0843               	movf	___lldiv@divisor+3,w
  1760     0019  0442               	iorwf	___lldiv@divisor+2,w
  1761     001A  0441               	iorwf	___lldiv@divisor+1,w
  1762     001B  0440               	iorwf	___lldiv@divisor,w
  1763     001C  1903               	skipnz
  1764     001D  281F               	goto	u31_21
  1765     001E  2820               	goto	u31_20
  1766     001F                     u31_21:
  1767     001F  286D               	goto	i1l876
  1768     0020                     u31_20:
  1769     0020                     i1l858:
  1770     0020  01CD               	clrf	___lldiv@counter
  1771     0021  0ACD               	incf	___lldiv@counter,f
  1772     0022  2830               	goto	i1l862
  1773     0023                     i1l860:
  1774     0023  3001               	movlw	1
  1775     0024  00C8               	movwf	??___lldiv
  1776     0025                     u32_25:
  1777     0025  1003               	clrc
  1778     0026  0DC0               	rlf	___lldiv@divisor,f
  1779     0027  0DC1               	rlf	___lldiv@divisor+1,f
  1780     0028  0DC2               	rlf	___lldiv@divisor+2,f
  1781     0029  0DC3               	rlf	___lldiv@divisor+3,f
  1782     002A  0BC8               	decfsz	??___lldiv,f
  1783     002B  2825               	goto	u32_25
  1784     002C  3001               	movlw	1
  1785     002D  00C8               	movwf	??___lldiv
  1786     002E  0848               	movf	??___lldiv,w
  1787     002F  07CD               	addwf	___lldiv@counter,f
  1788     0030                     i1l862:
  1789     0030  1FC3               	btfss	___lldiv@divisor+3,7
  1790     0031  2833               	goto	u33_21
  1791     0032  2834               	goto	u33_20
  1792     0033                     u33_21:
  1793     0033  2823               	goto	i1l860
  1794     0034                     u33_20:
  1795     0034                     i1l864:
  1796     0034  3001               	movlw	1
  1797     0035  00C8               	movwf	??___lldiv
  1798     0036                     u34_25:
  1799     0036  1003               	clrc
  1800     0037  0DC9               	rlf	___lldiv@quotient,f
  1801     0038  0DCA               	rlf	___lldiv@quotient+1,f
  1802     0039  0DCB               	rlf	___lldiv@quotient+2,f
  1803     003A  0DCC               	rlf	___lldiv@quotient+3,f
  1804     003B  0BC8               	decfsz	??___lldiv,f
  1805     003C  2836               	goto	u34_25
  1806     003D                     i1l866:
  1807     003D  0843               	movf	___lldiv@divisor+3,w
  1808     003E  0247               	subwf	___lldiv@dividend+3,w
  1809     003F  1D03               	skipz
  1810     0040  284B               	goto	u35_25
  1811     0041  0842               	movf	___lldiv@divisor+2,w
  1812     0042  0246               	subwf	___lldiv@dividend+2,w
  1813     0043  1D03               	skipz
  1814     0044  284B               	goto	u35_25
  1815     0045  0841               	movf	___lldiv@divisor+1,w
  1816     0046  0245               	subwf	___lldiv@dividend+1,w
  1817     0047  1D03               	skipz
  1818     0048  284B               	goto	u35_25
  1819     0049  0840               	movf	___lldiv@divisor,w
  1820     004A  0244               	subwf	___lldiv@dividend,w
  1821     004B                     u35_25:
  1822     004B  1C03               	skipc
  1823     004C  284E               	goto	u35_21
  1824     004D  284F               	goto	u35_20
  1825     004E                     u35_21:
  1826     004E  285E               	goto	i1l872
  1827     004F                     u35_20:
  1828     004F                     i1l868:
  1829     004F  0840               	movf	___lldiv@divisor,w
  1830     0050  02C4               	subwf	___lldiv@dividend,f
  1831     0051  0841               	movf	___lldiv@divisor+1,w
  1832     0052  1C03               	skipc
  1833     0053  0F41               	incfsz	___lldiv@divisor+1,w
  1834     0054  02C5               	subwf	___lldiv@dividend+1,f
  1835     0055  0842               	movf	___lldiv@divisor+2,w
  1836     0056  1C03               	skipc
  1837     0057  0F42               	incfsz	___lldiv@divisor+2,w
  1838     0058  02C6               	subwf	___lldiv@dividend+2,f
  1839     0059  0843               	movf	___lldiv@divisor+3,w
  1840     005A  1C03               	skipc
  1841     005B  0F43               	incfsz	___lldiv@divisor+3,w
  1842     005C  02C7               	subwf	___lldiv@dividend+3,f
  1843     005D                     i1l870:
  1844     005D  1449               	bsf	___lldiv@quotient,0
  1845     005E                     i1l872:
  1846     005E  3001               	movlw	1
  1847     005F                     u36_25:
  1848     005F  1003               	clrc
  1849     0060  0CC3               	rrf	___lldiv@divisor+3,f
  1850     0061  0CC2               	rrf	___lldiv@divisor+2,f
  1851     0062  0CC1               	rrf	___lldiv@divisor+1,f
  1852     0063  0CC0               	rrf	___lldiv@divisor,f
  1853     0064  3EFF               	addlw	-1
  1854     0065  1D03               	skipz
  1855     0066  285F               	goto	u36_25
  1856     0067                     i1l874:
  1857     0067  3001               	movlw	1
  1858     0068  02CD               	subwf	___lldiv@counter,f
  1859     0069  1D03               	btfss	3,2
  1860     006A  286C               	goto	u37_21
  1861     006B  286D               	goto	u37_20
  1862     006C                     u37_21:
  1863     006C  2834               	goto	i1l864
  1864     006D                     u37_20:
  1865     006D                     i1l876:
  1866     006D  084C               	movf	___lldiv@quotient+3,w
  1867     006E  00C3               	movwf	?___lldiv+3
  1868     006F  084B               	movf	___lldiv@quotient+2,w
  1869     0070  00C2               	movwf	?___lldiv+2
  1870     0071  084A               	movf	___lldiv@quotient+1,w
  1871     0072  00C1               	movwf	?___lldiv+1
  1872     0073  0849               	movf	___lldiv@quotient,w
  1873     0074  00C0               	movwf	?___lldiv
  1874     0075                     i1l192:
  1875     0075  0008               	return
  1876     0076                     __end_of___lldiv:
  1877                           
  1878                           	psect	text15
  1879     0151                     __ptext15:	
  1880 ;; *************** function _PWM_Enable *****************
  1881 ;; Defined at:
  1882 ;;		line 33 in file "pwm.c"
  1883 ;; Parameters:    Size  Location     Type
  1884 ;;		None
  1885 ;; Auto vars:     Size  Location     Type
  1886 ;;		None
  1887 ;; Return value:  Size  Location     Type
  1888 ;;                  1    wreg      void 
  1889 ;; Registers used:
  1890 ;;		wreg, status,2, status,0
  1891 ;; Tracked objects:
  1892 ;;		On entry : 0/0
  1893 ;;		On exit  : 0/0
  1894 ;;		Unchanged: 0/0
  1895 ;; Data sizes:     COMMON   BANK0
  1896 ;;      Params:         0       0
  1897 ;;      Locals:         0       0
  1898 ;;      Temps:          0       1
  1899 ;;      Totals:         0       1
  1900 ;;Total ram usage:        1 bytes
  1901 ;; Hardware stack levels used: 1
  1902 ;; This function calls:
  1903 ;;		Nothing
  1904 ;; This function is called by:
  1905 ;;		_PWM_On_20_Percent_Duty_Cycle
  1906 ;;		_PWM_On_50_Percent_Duty_Cycle
  1907 ;;		_PWM_On_100_Percent_Duty_Cycle
  1908 ;; This function uses a non-reentrant model
  1909 ;;
  1910                           
  1911     0151                     _PWM_Enable:	
  1912                           ;psect for function _PWM_Enable
  1913                           
  1914     0151                     i1l896:	
  1915                           ;incstack = 0
  1916                           ; Regs used in _PWM_Enable: [wreg+status,2+status,0]
  1917                           
  1918                           
  1919                           ;pwm.c: 34: LATA &=~ (1<<1);
  1920     0151  30FD               	movlw	253
  1921     0152  00C0               	movwf	??_PWM_Enable
  1922     0153  0840               	movf	??_PWM_Enable,w
  1923     0154  0587               	andwf	7,f	;volatile
  1924     0155                     i1l898:
  1925                           
  1926                           ;pwm.c: 35: TRISA |= (1<<1);
  1927     0155  1486               	bsf	6,1	;volatile
  1928     0156                     i1l900:
  1929                           
  1930                           ;pwm.c: 36: ANSELA |= (1<<1);
  1931     0156  1488               	bsf	8,1	;volatile
  1932     0157                     i1l902:
  1933                           
  1934                           ;pwm.c: 37: PWM2CON = (1<<6)|(1<<7);
  1935     0157  30C0               	movlw	192
  1936     0158  0099               	movwf	25	;volatile
  1937     0159                     i1l904:
  1938                           
  1939                           ;pwm.c: 38: PWM2DCH = 0x7F;
  1940     0159  307F               	movlw	127
  1941     015A  0098               	movwf	24	;volatile
  1942     015B                     i1l906:
  1943                           
  1944                           ;pwm.c: 39: PWM2DCL = 0xC0;
  1945     015B  30C0               	movlw	192
  1946     015C  0097               	movwf	23	;volatile
  1947     015D                     i1l908:
  1948                           
  1949                           ;pwm.c: 40: PR2 = 0xFF;
  1950     015D  30FF               	movlw	255
  1951     015E  0092               	movwf	18	;volatile
  1952     015F                     i1l910:
  1953                           
  1954                           ;pwm.c: 41: TMR2 = 0x00;
  1955     015F  0191               	clrf	17	;volatile
  1956     0160                     i1l912:
  1957                           
  1958                           ;pwm.c: 42: PIR1 &=~ (1<<1);
  1959     0160  30FD               	movlw	253
  1960     0161  00C0               	movwf	??_PWM_Enable
  1961     0162  0840               	movf	??_PWM_Enable,w
  1962     0163  058C               	andwf	12,f	;volatile
  1963     0164                     i1l914:
  1964                           
  1965                           ;pwm.c: 43: T2CON = (1<<2);
  1966     0164  3004               	movlw	4
  1967     0165  0093               	movwf	19	;volatile
  1968     0166                     i1l916:
  1969                           
  1970                           ;pwm.c: 44: TRISA &=~ (1<<1);
  1971     0166  30FD               	movlw	253
  1972     0167  00C0               	movwf	??_PWM_Enable
  1973     0168  0840               	movf	??_PWM_Enable,w
  1974     0169  0586               	andwf	6,f	;volatile
  1975     016A                     i1l61:
  1976     016A  0008               	return
  1977     016B                     __end_of_PWM_Enable:
  1978                           
  1979                           	psect	text16
  1980     01CF                     __ptext16:	
  1981 ;; *************** function _PWM_Off *****************
  1982 ;; Defined at:
  1983 ;;		line 87 in file "pwm.c"
  1984 ;; Parameters:    Size  Location     Type
  1985 ;;		None
  1986 ;; Auto vars:     Size  Location     Type
  1987 ;;		None
  1988 ;; Return value:  Size  Location     Type
  1989 ;;                  1    wreg      void 
  1990 ;; Registers used:
  1991 ;;		wreg, status,2, status,0, pclath, cstack
  1992 ;; Tracked objects:
  1993 ;;		On entry : 0/0
  1994 ;;		On exit  : 0/0
  1995 ;;		Unchanged: 0/0
  1996 ;; Data sizes:     COMMON   BANK0
  1997 ;;      Params:         0       0
  1998 ;;      Locals:         0       0
  1999 ;;      Temps:          0       0
  2000 ;;      Totals:         0       0
  2001 ;;Total ram usage:        0 bytes
  2002 ;; Hardware stack levels used: 1
  2003 ;; Hardware stack levels required when called: 1
  2004 ;; This function calls:
  2005 ;;		_PWM_Disable
  2006 ;;		_PWM_Get_Execution_Status
  2007 ;;		_PWM_Set_Execution_Status
  2008 ;; This function is called by:
  2009 ;;		_Button_ISR_Executables
  2010 ;; This function uses a non-reentrant model
  2011 ;;
  2012                           
  2013     01CF                     _PWM_Off:	
  2014                           ;psect for function _PWM_Off
  2015                           
  2016     01CF                     i1l940:	
  2017                           ;incstack = 0
  2018                           ; Regs used in _PWM_Off: [wreg+status,2+status,0+pclath+cstack]
  2019                           
  2020                           
  2021                           ;pwm.c: 88: if(PWM_Get_Execution_Status()==0){
  2022     01CF  21F9               	fcall	_PWM_Get_Execution_Status
  2023     01D0  3A00               	xorlw	0
  2024     01D1  1D03               	skipz
  2025     01D2  29D4               	goto	u42_21
  2026     01D3  29D5               	goto	u42_20
  2027     01D4                     u42_21:
  2028     01D4  29D7               	goto	i1l80
  2029     01D5                     u42_20:
  2030     01D5                     i1l942:
  2031                           
  2032                           ;pwm.c: 89: PWM_Disable();
  2033     01D5  216B               	fcall	_PWM_Disable
  2034                           
  2035                           ;pwm.c: 90: PWM_Set_Execution_Status();
  2036     01D6  21ED               	fcall	_PWM_Set_Execution_Status
  2037     01D7                     i1l80:
  2038     01D7  0008               	return
  2039     01D8                     __end_of_PWM_Off:
  2040                           
  2041                           	psect	text17
  2042     01ED                     __ptext17:	
  2043 ;; *************** function _PWM_Set_Execution_Status *****************
  2044 ;; Defined at:
  2045 ;;		line 16 in file "pwm.c"
  2046 ;; Parameters:    Size  Location     Type
  2047 ;;		None
  2048 ;; Auto vars:     Size  Location     Type
  2049 ;;		None
  2050 ;; Return value:  Size  Location     Type
  2051 ;;                  1    wreg      void 
  2052 ;; Registers used:
  2053 ;;		wreg
  2054 ;; Tracked objects:
  2055 ;;		On entry : 0/0
  2056 ;;		On exit  : 0/0
  2057 ;;		Unchanged: 0/0
  2058 ;; Data sizes:     COMMON   BANK0
  2059 ;;      Params:         0       0
  2060 ;;      Locals:         0       0
  2061 ;;      Temps:          0       0
  2062 ;;      Totals:         0       0
  2063 ;;Total ram usage:        0 bytes
  2064 ;; Hardware stack levels used: 1
  2065 ;; This function calls:
  2066 ;;		Nothing
  2067 ;; This function is called by:
  2068 ;;		_PWM_On_20_Percent_Duty_Cycle
  2069 ;;		_PWM_On_50_Percent_Duty_Cycle
  2070 ;;		_PWM_On_100_Percent_Duty_Cycle
  2071 ;;		_PWM_Off
  2072 ;; This function uses a non-reentrant model
  2073 ;;
  2074                           
  2075     01ED                     _PWM_Set_Execution_Status:	
  2076                           ;psect for function _PWM_Set_Execution_Status
  2077                           
  2078     01ED                     i1l884:	
  2079                           ;incstack = 0
  2080                           ; Regs used in _PWM_Set_Execution_Status: [wreg]
  2081                           
  2082                           
  2083                           ;pwm.c: 17: executed=1;
  2084     01ED  3001               	movlw	1
  2085     01EE  00DD               	movwf	_executed	;volatile
  2086     01EF                     i1l52:
  2087     01EF  0008               	return
  2088     01F0                     __end_of_PWM_Set_Execution_Status:
  2089                           
  2090                           	psect	text18
  2091     01F9                     __ptext18:	
  2092 ;; *************** function _PWM_Get_Execution_Status *****************
  2093 ;; Defined at:
  2094 ;;		line 12 in file "pwm.c"
  2095 ;; Parameters:    Size  Location     Type
  2096 ;;		None
  2097 ;; Auto vars:     Size  Location     Type
  2098 ;;		None
  2099 ;; Return value:  Size  Location     Type
  2100 ;;                  1    wreg      unsigned char 
  2101 ;; Registers used:
  2102 ;;		wreg
  2103 ;; Tracked objects:
  2104 ;;		On entry : 0/0
  2105 ;;		On exit  : 0/0
  2106 ;;		Unchanged: 0/0
  2107 ;; Data sizes:     COMMON   BANK0
  2108 ;;      Params:         0       0
  2109 ;;      Locals:         0       0
  2110 ;;      Temps:          0       0
  2111 ;;      Totals:         0       0
  2112 ;;Total ram usage:        0 bytes
  2113 ;; Hardware stack levels used: 1
  2114 ;; This function calls:
  2115 ;;		Nothing
  2116 ;; This function is called by:
  2117 ;;		_PWM_On_20_Percent_Duty_Cycle
  2118 ;;		_PWM_On_50_Percent_Duty_Cycle
  2119 ;;		_PWM_On_100_Percent_Duty_Cycle
  2120 ;;		_PWM_Off
  2121 ;; This function uses a non-reentrant model
  2122 ;;
  2123                           
  2124     01F9                     _PWM_Get_Execution_Status:	
  2125                           ;psect for function _PWM_Get_Execution_Status
  2126                           
  2127     01F9                     i1l880:	
  2128                           ;incstack = 0
  2129                           ; Regs used in _PWM_Get_Execution_Status: [wreg]
  2130                           
  2131                           
  2132                           ;pwm.c: 13: return executed;
  2133     01F9  085D               	movf	_executed,w	;volatile
  2134     01FA                     i1l49:
  2135     01FA  0008               	return
  2136     01FB                     __end_of_PWM_Get_Execution_Status:
  2137                           
  2138                           	psect	text19
  2139     016B                     __ptext19:	
  2140 ;; *************** function _PWM_Disable *****************
  2141 ;; Defined at:
  2142 ;;		line 47 in file "pwm.c"
  2143 ;; Parameters:    Size  Location     Type
  2144 ;;		None
  2145 ;; Auto vars:     Size  Location     Type
  2146 ;;		None
  2147 ;; Return value:  Size  Location     Type
  2148 ;;                  1    wreg      void 
  2149 ;; Registers used:
  2150 ;;		wreg, status,2, status,0
  2151 ;; Tracked objects:
  2152 ;;		On entry : 0/0
  2153 ;;		On exit  : 0/0
  2154 ;;		Unchanged: 0/0
  2155 ;; Data sizes:     COMMON   BANK0
  2156 ;;      Params:         0       0
  2157 ;;      Locals:         0       0
  2158 ;;      Temps:          0       1
  2159 ;;      Totals:         0       1
  2160 ;;Total ram usage:        1 bytes
  2161 ;; Hardware stack levels used: 1
  2162 ;; This function calls:
  2163 ;;		Nothing
  2164 ;; This function is called by:
  2165 ;;		_PWM_On_20_Percent_Duty_Cycle
  2166 ;;		_PWM_On_50_Percent_Duty_Cycle
  2167 ;;		_PWM_On_100_Percent_Duty_Cycle
  2168 ;;		_PWM_Off
  2169 ;; This function uses a non-reentrant model
  2170 ;;
  2171                           
  2172     016B                     _PWM_Disable:	
  2173                           ;psect for function _PWM_Disable
  2174                           
  2175     016B                     i1l918:	
  2176                           ;incstack = 0
  2177                           ; Regs used in _PWM_Disable: [wreg+status,2+status,0]
  2178                           
  2179                           
  2180                           ;pwm.c: 48: TRISA |= (1<<1);
  2181     016B  1486               	bsf	6,1	;volatile
  2182     016C                     i1l920:
  2183                           
  2184                           ;pwm.c: 49: PWM2CON = 0;
  2185     016C  0199               	clrf	25	;volatile
  2186                           
  2187                           ;pwm.c: 50: T2CON = 0;
  2188     016D  0193               	clrf	19	;volatile
  2189                           
  2190                           ;pwm.c: 51: PR2 = 0;
  2191     016E  0192               	clrf	18	;volatile
  2192                           
  2193                           ;pwm.c: 52: TMR2 = 0;
  2194     016F  0191               	clrf	17	;volatile
  2195                           
  2196                           ;pwm.c: 53: PWM2DCH = 0;
  2197     0170  0198               	clrf	24	;volatile
  2198                           
  2199                           ;pwm.c: 54: PWM2DCL = 0;
  2200     0171  0197               	clrf	23	;volatile
  2201     0172                     i1l922:
  2202                           
  2203                           ;pwm.c: 55: LATA &=~ (1<<1);
  2204     0172  30FD               	movlw	253
  2205     0173  00C0               	movwf	??_PWM_Disable
  2206     0174  0840               	movf	??_PWM_Disable,w
  2207     0175  0587               	andwf	7,f	;volatile
  2208     0176                     i1l924:
  2209                           
  2210                           ;pwm.c: 56: ANSELA &=~ (1<<1);
  2211     0176  30FD               	movlw	253
  2212     0177  00C0               	movwf	??_PWM_Disable
  2213     0178  0840               	movf	??_PWM_Disable,w
  2214     0179  0588               	andwf	8,f	;volatile
  2215     017A                     i1l926:
  2216                           
  2217                           ;pwm.c: 57: TRISA &=~ (1<<1);
  2218     017A  30FD               	movlw	253
  2219     017B  00C0               	movwf	??_PWM_Disable
  2220     017C  0840               	movf	??_PWM_Disable,w
  2221     017D  0586               	andwf	6,f	;volatile
  2222     017E                     i1l64:
  2223     017E  0008               	return
  2224     017F                     __end_of_PWM_Disable:
  2225                           
  2226                           	psect	text20
  2227     01F0                     __ptext20:	
  2228 ;; *************** function _Button_Set_Sleep_Mode *****************
  2229 ;; Defined at:
  2230 ;;		line 47 in file "button.c"
  2231 ;; Parameters:    Size  Location     Type
  2232 ;;		None
  2233 ;; Auto vars:     Size  Location     Type
  2234 ;;		None
  2235 ;; Return value:  Size  Location     Type
  2236 ;;                  1    wreg      void 
  2237 ;; Registers used:
  2238 ;;		wreg
  2239 ;; Tracked objects:
  2240 ;;		On entry : 0/0
  2241 ;;		On exit  : 0/0
  2242 ;;		Unchanged: 0/0
  2243 ;; Data sizes:     COMMON   BANK0
  2244 ;;      Params:         0       0
  2245 ;;      Locals:         0       0
  2246 ;;      Temps:          0       0
  2247 ;;      Totals:         0       0
  2248 ;;Total ram usage:        0 bytes
  2249 ;; Hardware stack levels used: 1
  2250 ;; This function calls:
  2251 ;;		Nothing
  2252 ;; This function is called by:
  2253 ;;		_Button_ISR_Executables
  2254 ;; This function uses a non-reentrant model
  2255 ;;
  2256                           
  2257     01F0                     _Button_Set_Sleep_Mode:	
  2258                           ;psect for function _Button_Set_Sleep_Mode
  2259                           
  2260     01F0                     i1l946:	
  2261                           ;incstack = 0
  2262                           ; Regs used in _Button_Set_Sleep_Mode: [wreg]
  2263                           
  2264                           
  2265                           ;button.c: 48: sleep_mode = 1;
  2266     01F0  3001               	movlw	1
  2267     01F1  00DB               	movwf	_sleep_mode	;volatile
  2268     01F2                     i1l128:
  2269     01F2  0008               	return
  2270     01F3                     __end_of_Button_Set_Sleep_Mode:
  2271                           
  2272                           	psect	text21
  2273     01FB                     __ptext21:	
  2274 ;; *************** function _Button_Set_Active_Mode *****************
  2275 ;; Defined at:
  2276 ;;		line 51 in file "button.c"
  2277 ;; Parameters:    Size  Location     Type
  2278 ;;		None
  2279 ;; Auto vars:     Size  Location     Type
  2280 ;;		None
  2281 ;; Return value:  Size  Location     Type
  2282 ;;                  1    wreg      void 
  2283 ;; Registers used:
  2284 ;;		status,2
  2285 ;; Tracked objects:
  2286 ;;		On entry : 0/0
  2287 ;;		On exit  : 0/0
  2288 ;;		Unchanged: 0/0
  2289 ;; Data sizes:     COMMON   BANK0
  2290 ;;      Params:         0       0
  2291 ;;      Locals:         0       0
  2292 ;;      Temps:          0       0
  2293 ;;      Totals:         0       0
  2294 ;;Total ram usage:        0 bytes
  2295 ;; Hardware stack levels used: 1
  2296 ;; This function calls:
  2297 ;;		Nothing
  2298 ;; This function is called by:
  2299 ;;		_Button_ISR_Executables
  2300 ;; This function uses a non-reentrant model
  2301 ;;
  2302                           
  2303     01FB                     _Button_Set_Active_Mode:	
  2304                           ;psect for function _Button_Set_Active_Mode
  2305                           
  2306     01FB                     i1l948:	
  2307                           ;incstack = 0
  2308                           ; Regs used in _Button_Set_Active_Mode: [status,2]
  2309                           
  2310                           
  2311                           ;button.c: 52: sleep_mode = 0;
  2312     01FB  01DB               	clrf	_sleep_mode	;volatile
  2313     01FC                     i1l131:
  2314     01FC  0008               	return
  2315     01FD                     __end_of_Button_Set_Active_Mode:
  2316                           
  2317                           	psect	text22
  2318     01FD                     __ptext22:	
  2319 ;; *************** function _Button_Get_State *****************
  2320 ;; Defined at:
  2321 ;;		line 55 in file "button.c"
  2322 ;; Parameters:    Size  Location     Type
  2323 ;;		None
  2324 ;; Auto vars:     Size  Location     Type
  2325 ;;		None
  2326 ;; Return value:  Size  Location     Type
  2327 ;;                  1    wreg      unsigned char 
  2328 ;; Registers used:
  2329 ;;		wreg
  2330 ;; Tracked objects:
  2331 ;;		On entry : 0/0
  2332 ;;		On exit  : 0/0
  2333 ;;		Unchanged: 0/0
  2334 ;; Data sizes:     COMMON   BANK0
  2335 ;;      Params:         0       0
  2336 ;;      Locals:         0       0
  2337 ;;      Temps:          0       0
  2338 ;;      Totals:         0       0
  2339 ;;Total ram usage:        0 bytes
  2340 ;; Hardware stack levels used: 1
  2341 ;; This function calls:
  2342 ;;		Nothing
  2343 ;; This function is called by:
  2344 ;;		_Button_ISR_Executables
  2345 ;; This function uses a non-reentrant model
  2346 ;;
  2347                           
  2348     01FD                     _Button_Get_State:	
  2349                           ;psect for function _Button_Get_State
  2350                           
  2351     01FD                     i1l950:	
  2352                           ;incstack = 0
  2353                           ; Regs used in _Button_Get_State: [wreg]
  2354                           
  2355                           
  2356                           ;button.c: 56: return Button_State;
  2357     01FD  085C               	movf	_Button_State,w	;volatile
  2358     01FE                     i1l134:
  2359     01FE  0008               	return
  2360     01FF                     __end_of_Button_Get_State:
  2361     007E                     btemp	set	126	;btemp
  2362     007E                     wtemp0	set	126
  2363                           
  2364                           	psect	config
  2365                           
  2366                           ;Config register CONFIG @ 0x2007
  2367                           ;	Oscillator Selection bits
  2368                           ;	FOSC = INTOSC, INTOSC oscillator: CLKIN function disabled
  2369                           ;	Brown-out Reset Enable
  2370                           ;	BOREN = OFF, Brown-out Reset disabled
  2371                           ;	Watchdog Timer Enable
  2372                           ;	WDTE = OFF, WDT disabled
  2373                           ;	Power-up Timer Enable bit
  2374                           ;	PWRTE = OFF, PWRT disabled
  2375                           ;	MCLR Pin Function Select bit
  2376                           ;	MCLRE = ON, MCLR pin function is MCLR
  2377                           ;	Code Protection bit
  2378                           ;	CP = OFF, Program memory code protection is disabled
  2379                           ;	Low-Voltage Programming Enable
  2380                           ;	LVP = ON, Low-voltage programming enabled
  2381                           ;	Brown-out Reset Selection bits
  2382                           ;	LPBOR = OFF, BOR disabled
  2383                           ;	Brown-out Reset Voltage Selection
  2384                           ;	BORV = LO, Brown-out Reset Voltage (Vbor), low trip point selected.
  2385                           ;	Flash Memory Self-Write Protection
  2386                           ;	WRT = OFF, Write protection off
  2387     2007                     	org	8199
  2388     2007  3DE0               	dw	15840

Data Sizes:
    Strings     0
    Constant    0
    Data        0
    BSS         3
    Persistent  0
    Stack       0

Auto Spaces:
    Space          Size  Autos    Used
    COMMON            0      0       0
    BANK0            62     27      30

Pointer List with Targets:

    None.

Critical Paths under _main in COMMON

    None.

Critical Paths under _ISRs in COMMON

    None.

Critical Paths under _main in BANK0

    _main->_Button_Init
    _Sleep_Init->_Sleep_Unused_GPIO_Config

Critical Paths under _ISRs in BANK0

    _ISRs->_Button_ISR_Executables
    _PWM_On_50_Percent_Duty_Cycle->_PWM_Set_Duty
    _PWM_On_20_Percent_Duty_Cycle->_PWM_Set_Duty
    _PWM_On_100_Percent_Duty_Cycle->_PWM_Set_Duty
    _PWM_Set_Duty->___lldiv
    _PWM_Off->_PWM_Disable

Call Graph Tables:

 ---------------------------------------------------------------------------------
 (Depth) Function   	        Calls       Base Space   Used Autos Params    Refs
 ---------------------------------------------------------------------------------
 (0) _main                                                 0     0      0       0
              _Button_Get_Sleep_Mode
                        _Button_Init
         _PWM_Clear_Execution_Status
                         _Sleep_Init
 ---------------------------------------------------------------------------------
 (1) _Sleep_Init                                           0     0      0       0
           _Sleep_Unused_GPIO_Config
 ---------------------------------------------------------------------------------
 (2) _Sleep_Unused_GPIO_Config                             1     1      0       0
                                             26 BANK0      1     1      0
 ---------------------------------------------------------------------------------
 (1) _PWM_Clear_Execution_Status                           0     0      0       0
 ---------------------------------------------------------------------------------
 (1) _Button_Init                                          1     1      0       0
                                             26 BANK0      1     1      0
 ---------------------------------------------------------------------------------
 (1) _Button_Get_Sleep_Mode                                0     0      0       0
 ---------------------------------------------------------------------------------
 Estimated maximum stack depth 2
 ---------------------------------------------------------------------------------
 (Depth) Function   	        Calls       Base Space   Used Autos Params    Refs
 ---------------------------------------------------------------------------------
 (3) _ISRs                                                 2     2      0    2700
                                             24 BANK0      2     2      0
             _Button_ISR_Executables
 ---------------------------------------------------------------------------------
 (4) _Button_ISR_Executables                               2     2      0    2700
                                             22 BANK0      2     2      0
                   _Button_Get_State
             _Button_Set_Active_Mode
              _Button_Set_Sleep_Mode
                            _PWM_Off
      _PWM_On_100_Percent_Duty_Cycle
       _PWM_On_20_Percent_Duty_Cycle
       _PWM_On_50_Percent_Duty_Cycle
       i1_PWM_Clear_Execution_Status
 ---------------------------------------------------------------------------------
 (5) i1_PWM_Clear_Execution_Status                         0     0      0       0
 ---------------------------------------------------------------------------------
 (5) _PWM_On_50_Percent_Duty_Cycle                         0     0      0     900
                        _PWM_Disable
                         _PWM_Enable
           _PWM_Get_Execution_Status
                       _PWM_Set_Duty
           _PWM_Set_Execution_Status
 ---------------------------------------------------------------------------------
 (5) _PWM_On_20_Percent_Duty_Cycle                         0     0      0     900
                        _PWM_Disable
                         _PWM_Enable
           _PWM_Get_Execution_Status
                       _PWM_Set_Duty
           _PWM_Set_Execution_Status
 ---------------------------------------------------------------------------------
 (5) _PWM_On_100_Percent_Duty_Cycle                        0     0      0     900
                        _PWM_Disable
                         _PWM_Enable
           _PWM_Get_Execution_Status
                       _PWM_Set_Duty
           _PWM_Set_Execution_Status
 ---------------------------------------------------------------------------------
 (6) _PWM_Set_Duty                                         8     4      4     900
                                             14 BANK0      8     4      4
                            ___lldiv
                             ___lmul
 ---------------------------------------------------------------------------------
 (7) ___lmul                                              13     5      8     244
                                              0 BANK0     13     5      8
 ---------------------------------------------------------------------------------
 (7) ___lldiv                                             14     6      8     314
                                              0 BANK0     14     6      8
 ---------------------------------------------------------------------------------
 (6) _PWM_Enable                                           1     1      0       0
                                              0 BANK0      1     1      0
 ---------------------------------------------------------------------------------
 (5) _PWM_Off                                              0     0      0       0
                        _PWM_Disable
           _PWM_Get_Execution_Status
           _PWM_Set_Execution_Status
 ---------------------------------------------------------------------------------
 (6) _PWM_Set_Execution_Status                             0     0      0       0
 ---------------------------------------------------------------------------------
 (6) _PWM_Get_Execution_Status                             0     0      0       0
 ---------------------------------------------------------------------------------
 (6) _PWM_Disable                                          1     1      0       0
                                              0 BANK0      1     1      0
 ---------------------------------------------------------------------------------
 (5) _Button_Set_Sleep_Mode                                0     0      0       0
 ---------------------------------------------------------------------------------
 (5) _Button_Set_Active_Mode                               0     0      0       0
 ---------------------------------------------------------------------------------
 (5) _Button_Get_State                                     0     0      0       0
 ---------------------------------------------------------------------------------
 Estimated maximum stack depth 7
 ---------------------------------------------------------------------------------

 Call Graph Graphs:

 _main (ROOT)
   _Button_Get_Sleep_Mode
   _Button_Init
   _PWM_Clear_Execution_Status
   _Sleep_Init
     _Sleep_Unused_GPIO_Config

 _ISRs (ROOT)
   _Button_ISR_Executables
     _Button_Get_State
     _Button_Set_Active_Mode
     _Button_Set_Sleep_Mode
     _PWM_Off
       _PWM_Disable
       _PWM_Get_Execution_Status
       _PWM_Set_Execution_Status
     _PWM_On_100_Percent_Duty_Cycle
       _PWM_Disable
       _PWM_Enable
       _PWM_Get_Execution_Status
       _PWM_Set_Duty
         ___lldiv
         ___lmul
       _PWM_Set_Execution_Status
     _PWM_On_20_Percent_Duty_Cycle
       _PWM_Disable
       _PWM_Enable
       _PWM_Get_Execution_Status
       _PWM_Set_Duty
       _PWM_Set_Execution_Status
     _PWM_On_50_Percent_Duty_Cycle
       _PWM_Disable
       _PWM_Enable
       _PWM_Get_Execution_Status
       _PWM_Set_Duty
       _PWM_Set_Execution_Status
     i1_PWM_Clear_Execution_Status

 Address spaces:
Name               Size   Autos  Total    Cost      Usage
BITCOMMON            0      0       0       0        0.0%
NULL                 0      0       0       0        0.0%
CODE                 0      0       0       0        0.0%
BITSFR0              0      0       0       1        0.0%
SFR0                 0      0       0       1        0.0%
COMMON               0      0       0       1        0.0%
STACK                0      0       0       2        0.0%
BANK0               3E     1B      1E       3       48.4%
ABS                  0      0      1E       4        0.0%
DATA                 0      0      1E       5        0.0%
BITBANK0            3E      0       0       6        0.0%


Microchip Technology PIC Macro Assembler V2.40 build 20220703182018 
Symbol Table                                                                                   Thu Jun 22 15:02:32 2023

               _Button_ISR_Executables 010F                             _PWM_Enable 0151  
                                   l55 01F4                                     l93 01EC  
                                   l96 01DF                            _PWM_Disable 016B  
                                  l125 01CE                                    l137 01F6  
                                  l960 01C7                                    l944 01E8  
                                  l962 01C8                                    l970 01DB  
                                  l964 01CC                                    l956 01C4  
                                  l972 01DE                                    l958 01C6  
                                  l974 01F3                                    l966 01D8  
                                  l976 01F5                                    l968 01DA  
                                  u500 01C1                                    u501 01C0  
                                  _PR2 0012               ??_Button_Set_Active_Mode 0000  
                                 l1012 01B8                                   l1014 01BA  
                                 l1016 01BB                                   l1018 01C1  
              ??_Button_Get_Sleep_Mode 0000                                   _LATA 0007  
                                 i1l24 01E1                                   i1l52 01EF  
                                 i1l61 016A                                   i1l55 01F8  
                                 i1l64 017E                                   i1l80 01D7  
                                 i1l72 0191                                   i1l49 01FA  
                                 _PIR1 000C                                   i1l58 00C8  
                                 i1l76 01B7                                   i1l68 01A4  
                                 _TMR2 0011                                   _ISRs 01E0  
                                 _WPUA 0009                                   _main 01B8  
                                 btemp 007E                        __end_of_PWM_Off 01D8  
                                 start 000A                           _PWM_Set_Duty 0076  
 __end_of_PWM_On_20_Percent_Duty_Cycle 01A5           _PWM_On_20_Percent_Duty_Cycle 0192  
 __end_of_PWM_On_50_Percent_Duty_Cycle 0192           _PWM_On_50_Percent_Duty_Cycle 017F  
                                ?_ISRs 0040                          ??_Button_Init 005A  
                     _Button_Get_State 01FD                                  ?_main 0040  
                                _ADCON 001F                        __end_of___lldiv 0076  
                                _T2CON 0013                       PWM_Set_Duty@duty 004E  
                                i1l131 01FC                                  i1l141 011C  
                                i1l134 01FE                                  i1l128 01F2  
                                i1l152 0150                                  i1l170 010E  
                                i1l192 0075                       PWM_Set_Duty@temp 0054  
                                i1l900 0156                                  i1l910 015F  
                                i1l902 0157                                  i1l920 016C  
                                i1l912 0160                                  i1l904 0159  
                                i1l922 0172                                  i1l914 0164  
                                i1l906 015B                                  i1l850 00F5  
                                i1l842 00C9                                  i1l930 0198  
                                i1l924 0176                                  i1l940 01CF  
                                i1l916 0166                                  i1l908 015D  
                                i1l860 0023                                  i1l852 0106  
                                i1l844 00D1                                  i1l932 017F  
                                i1l950 01FD                                  i1l926 017A  
                                i1l918 016B                                  i1l942 01D5  
                                i1l870 005D                                  i1l862 0030  
                                i1l846 00D5                                  i1l934 0185  
                                i1l880 01F9                                  i1l872 005E  
                                i1l864 0034                                  i1l856 0010  
                                i1l848 00EC                                  i1l936 01A5  
                                i1l928 0192                                  i1l946 01F0  
                                i1l874 0067                                  i1l866 003D  
                                i1l858 0020                                  i1l890 00AC  
                                i1l938 01AB                                  i1l954 01F7  
                                i1l948 01FB                                  i1l884 01ED  
                                i1l868 004F                                  i1l876 006D  
                                i1l892 00B0                                  i1l980 010F  
                                i1l894 00BC                                  i1l886 0076  
                                i1l990 012B                                  i1l982 0113  
                                i1l896 0151                                  i1l888 00A8  
                                i1l992 012C                                  i1l984 0120  
                                i1l898 0155                                  i1l994 0131  
                                i1l986 0124                                  i1l996 0134  
                                i1l988 012A                                  i1l998 013A  
                                u30_20 0106                                  u30_21 0105  
                                u31_20 0020                                  u31_21 001F  
                                u40_20 0185                                  u40_21 0184  
                                u32_25 0025                                  u33_20 0034  
                                u41_20 01AB                                  u33_21 0033  
                                u41_21 01AA                                  u42_20 01D5  
                                u26_20 00D5                                  u42_21 01D4  
                                u26_21 00D4                                  u34_25 0036  
                                u35_20 004F                                  u43_20 0113  
                                u35_21 004E                                  u27_21 00DE  
                                u43_21 0112                                  _PORTA 0005  
                                u27_22 00E5                                  u27_23 00EC  
                                u35_25 004B                                  u51_27 0117  
                                u44_20 0120                                  u44_21 011F  
                                u36_25 005F                                  u28_25 00EE  
                                u37_20 006D                                  u45_20 012A  
                                u37_21 006C                                  u45_21 0129  
                                u29_25 00F6                                  u46_20 0131  
                                u46_21 0130                                  u38_25 00C0  
                                u39_20 0198                                  u47_20 013A  
                                u39_21 0197                                  u47_21 0139  
                                u48_20 0142                                  u48_21 0141  
                                u49_20 014A                                  u49_21 0149  
                                _TRISA 0006                    ___lmul@multiplicand 0044  
                                pclath 000A                                  status 0003  
                                wtemp0 007E                           __end_of_ISRs 01E8  
      ??_PWM_On_100_Percent_Duty_Cycle 0000                        __initialization 000B  
                         __end_of_main 01C4                            ?_PWM_Enable 0040  
                               ??_ISRs 0058                                 ??_main 0000  
                  __end_of_Button_Init 01CF     __end_of_PWM_Clear_Execution_Status 01F5  
           _PWM_Clear_Execution_Status 01F3                                 _ANSELA 0008  
                            ??_PWM_Off 0000             ??_Sleep_Unused_GPIO_Config 005A  
                               i1l1000 013C                                 i1l1002 0142  
                               i1l1010 014C                                 i1l1004 0144  
                               i1l1020 01E0                                 i1l1006 014A  
                               i1l1008 014B                                 _INTCON 000B  
                               _FVRCON 001D                             _Sleep_Init 01D8  
                               ___lmul 00C9                              ??___lldiv 0048  
                               saved_w 007E                __end_of__initialization 000E  
              ?_Button_ISR_Executables 0040                         __pcstackCOMMON 0000  
               _Button_Set_Active_Mode 01FB              ?_PWM_Get_Execution_Status 0040  
__end_of_PWM_On_100_Percent_Duty_Cycle 01B8          _PWM_On_100_Percent_Duty_Cycle 01A5  
            ?_PWM_Set_Execution_Status 0040                           ?_PWM_Disable 0040  
                          _Button_Init 01C4                  _Button_Set_Sleep_Mode 01F0  
                           __pbssBANK0 005B               __end_of_Button_Get_State 01FF  
        __end_of_Button_Get_Sleep_Mode 01F7         __end_of_Button_ISR_Executables 0151  
                          ?_Sleep_Init 0040                             __pmaintext 01B8  
                              ?___lmul 0040                             __pintentry 0004  
                       ___lmul@product 0049   __end_ofi1_PWM_Clear_Execution_Status 01F9  
         i1_PWM_Clear_Execution_Status 01F7                                _PWM2DCH 0018  
                              _PWM2DCL 0017                                _PWM2CON 0019  
                              _VREGCON 003E                                _PWM_Off 01CF  
                         ??_PWM_Enable 0040                                ___lldiv 0010  
               ?_Button_Set_Sleep_Mode 0040                                __ptext1 01D8  
                              __ptext2 01E8                                __ptext3 01F3  
                              __ptext4 01C4                                __ptext5 01F5  
                              __ptext6 01E0                                __ptext7 010F  
                              __ptext8 01F7                                __ptext9 017F  
        ?i1_PWM_Clear_Execution_Status 0040            ?_PWM_Clear_Execution_Status 0040  
                 end_of_initialization 000E                     __end_of_PWM_Enable 016B  
                      ___lldiv@divisor 0040                        ___lldiv@counter 004D  
                           _sleep_mode 005B       __end_of_PWM_Get_Execution_Status 01FB  
     __end_of_PWM_Set_Execution_Status 01F0                ?_Button_Set_Active_Mode 0040  
                       __end_of___lmul 010F              ?_Sleep_Unused_GPIO_Config 0040  
                         ?_Button_Init 0040          ?_PWM_On_20_Percent_Duty_Cycle 0040  
        ?_PWM_On_50_Percent_Duty_Cycle 0040                    start_initialization 000B  
                         _Button_State 005C         ??i1_PWM_Clear_Execution_Status 0000  
                    ?_Button_Get_State 0040         __end_of_Button_Set_Active_Mode 01FD  
                        ?_PWM_Set_Duty 004E                           ??_Sleep_Init 0000  
                   ??_Button_Get_State 0000                               ??___lmul 0048  
                            ___latbits 0000                          __pcstackBANK0 0040  
                   __end_of_Sleep_Init 01E0                               ?_PWM_Off 0040  
                       ??_PWM_Set_Duty 0052                  _Button_Get_Sleep_Mode 01F5  
             _PWM_Get_Execution_Status 01F9               _PWM_Set_Execution_Status 01ED  
              ??_Button_Set_Sleep_Mode 0000                               ?___lldiv 0040  
       ??_PWM_On_20_Percent_Duty_Cycle 0000         ??_PWM_On_50_Percent_Duty_Cycle 0000  
                    interrupt_function 0004               ??_Button_ISR_Executables 0056  
                    ___lmul@multiplier 0040       __end_of_Sleep_Unused_GPIO_Config 01ED  
               ?_Button_Get_Sleep_Mode 0040                          ??_PWM_Disable 0040  
                 __end_of_PWM_Set_Duty 00C9         ?_PWM_On_100_Percent_Duty_Cycle 0040  
                             __ptext10 0192                               __ptext11 01A5  
                             __ptext20 01F0                               __ptext12 0076  
                             __ptext21 01FB                               __ptext13 00C9  
                             __ptext22 01FD                               __ptext14 0010  
                             __ptext15 0151                               __ptext16 01CF  
                             __ptext17 01ED                               __ptext18 01F9  
                             __ptext19 016B                               _executed 005D  
                  __end_of_PWM_Disable 017F             ??_PWM_Get_Execution_Status 0000  
                             intlevel1 0000             ??_PWM_Set_Execution_Status 0000  
                     ___lldiv@dividend 0044               _Sleep_Unused_GPIO_Config 01E8  
        __end_of_Button_Set_Sleep_Mode 01F3                             _OPTION_REG 000E  
                     ___lldiv@quotient 0049           ??_PWM_Clear_Execution_Status 0000  
